
DMM_Projekt_04.elf:     file format elf32-avr

Sections:
Idx Name          Size      VMA       LMA       File off  Algn
  0 .data         00000010  00800100  00003322  000033b6  2**0
                  CONTENTS, ALLOC, LOAD, DATA
  1 .text         00003322  00000000  00000000  00000094  2**1
                  CONTENTS, ALLOC, LOAD, READONLY, CODE
  2 .bss          0000083a  00800110  00800110  000033c6  2**0
                  ALLOC
  3 .comment      00000030  00000000  00000000  000033c6  2**0
                  CONTENTS, READONLY
  4 .note.gnu.avr.deviceinfo 00000040  00000000  00000000  000033f8  2**2
                  CONTENTS, READONLY
  5 .debug_aranges 00000268  00000000  00000000  00003438  2**0
                  CONTENTS, READONLY, DEBUGGING
  6 .debug_info   0000235f  00000000  00000000  000036a0  2**0
                  CONTENTS, READONLY, DEBUGGING
  7 .debug_abbrev 00000eb3  00000000  00000000  000059ff  2**0
                  CONTENTS, READONLY, DEBUGGING
  8 .debug_line   00001d89  00000000  00000000  000068b2  2**0
                  CONTENTS, READONLY, DEBUGGING
  9 .debug_frame  00000834  00000000  00000000  0000863c  2**2
                  CONTENTS, READONLY, DEBUGGING
 10 .debug_str    00000b2c  00000000  00000000  00008e70  2**0
                  CONTENTS, READONLY, DEBUGGING
 11 .debug_loc    00001070  00000000  00000000  0000999c  2**0
                  CONTENTS, READONLY, DEBUGGING
 12 .debug_ranges 00000200  00000000  00000000  0000aa0c  2**0
                  CONTENTS, READONLY, DEBUGGING

Disassembly of section .text:

00000000 <__vectors>:
       0:	b3 c5       	rjmp	.+2918   	; 0xb68 <__ctors_end>
       2:	00 00       	nop
       4:	0c 94 ad 0f 	jmp	0x1f5a	; 0x1f5a <__vector_1>
       8:	ce c5       	rjmp	.+2972   	; 0xba6 <__bad_interrupt>
       a:	00 00       	nop
       c:	cc c5       	rjmp	.+2968   	; 0xba6 <__bad_interrupt>
       e:	00 00       	nop
      10:	0c 94 95 0f 	jmp	0x1f2a	; 0x1f2a <__vector_4>
      14:	c8 c5       	rjmp	.+2960   	; 0xba6 <__bad_interrupt>
      16:	00 00       	nop
      18:	c6 c5       	rjmp	.+2956   	; 0xba6 <__bad_interrupt>
      1a:	00 00       	nop
      1c:	c4 c5       	rjmp	.+2952   	; 0xba6 <__bad_interrupt>
      1e:	00 00       	nop
      20:	c2 c5       	rjmp	.+2948   	; 0xba6 <__bad_interrupt>
      22:	00 00       	nop
      24:	0c 94 41 0f 	jmp	0x1e82	; 0x1e82 <__vector_9>
      28:	be c5       	rjmp	.+2940   	; 0xba6 <__bad_interrupt>
      2a:	00 00       	nop
      2c:	bc c5       	rjmp	.+2936   	; 0xba6 <__bad_interrupt>
      2e:	00 00       	nop
      30:	ba c5       	rjmp	.+2932   	; 0xba6 <__bad_interrupt>
      32:	00 00       	nop
      34:	b8 c5       	rjmp	.+2928   	; 0xba6 <__bad_interrupt>
      36:	00 00       	nop
      38:	b6 c5       	rjmp	.+2924   	; 0xba6 <__bad_interrupt>
      3a:	00 00       	nop
      3c:	0c 94 78 0f 	jmp	0x1ef0	; 0x1ef0 <__vector_15>
      40:	0c 94 c5 0f 	jmp	0x1f8a	; 0x1f8a <__vector_16>
      44:	b0 c5       	rjmp	.+2912   	; 0xba6 <__bad_interrupt>
      46:	00 00       	nop
      48:	ae c5       	rjmp	.+2908   	; 0xba6 <__bad_interrupt>
      4a:	00 00       	nop
      4c:	ac c5       	rjmp	.+2904   	; 0xba6 <__bad_interrupt>
      4e:	00 00       	nop
      50:	aa c5       	rjmp	.+2900   	; 0xba6 <__bad_interrupt>
      52:	00 00       	nop
      54:	a8 c5       	rjmp	.+2896   	; 0xba6 <__bad_interrupt>
      56:	00 00       	nop
      58:	a6 c5       	rjmp	.+2892   	; 0xba6 <__bad_interrupt>
      5a:	00 00       	nop
      5c:	a4 c5       	rjmp	.+2888   	; 0xba6 <__bad_interrupt>
      5e:	00 00       	nop
      60:	a2 c5       	rjmp	.+2884   	; 0xba6 <__bad_interrupt>
      62:	00 00       	nop
      64:	a0 c5       	rjmp	.+2880   	; 0xba6 <__bad_interrupt>
      66:	00 00       	nop
      68:	9e c5       	rjmp	.+2876   	; 0xba6 <__bad_interrupt>
      6a:	00 00       	nop
      6c:	9c c5       	rjmp	.+2872   	; 0xba6 <__bad_interrupt>
      6e:	00 00       	nop
      70:	9a c5       	rjmp	.+2868   	; 0xba6 <__bad_interrupt>
      72:	00 00       	nop
      74:	98 c5       	rjmp	.+2864   	; 0xba6 <__bad_interrupt>
      76:	00 00       	nop
      78:	96 c5       	rjmp	.+2860   	; 0xba6 <__bad_interrupt>
      7a:	00 00       	nop
      7c:	94 c5       	rjmp	.+2856   	; 0xba6 <__bad_interrupt>
      7e:	00 00       	nop
      80:	92 c5       	rjmp	.+2852   	; 0xba6 <__bad_interrupt>
      82:	00 00       	nop
      84:	90 c5       	rjmp	.+2848   	; 0xba6 <__bad_interrupt>
      86:	00 00       	nop
      88:	8e c5       	rjmp	.+2844   	; 0xba6 <__bad_interrupt>
	...

0000008c <__trampolines_end>:
      8c:	00 00       	nop
      8e:	00 00       	nop
      90:	00 00       	nop
      92:	00 3e       	cpi	r16, 0xE0	; 224
      94:	45 51       	subi	r20, 0x15	; 21
      96:	45 3e       	cpi	r20, 0xE5	; 229
      98:	00 3e       	cpi	r16, 0xE0	; 224
      9a:	6b 6f       	ori	r22, 0xFB	; 251
      9c:	6b 3e       	cpi	r22, 0xEB	; 235
      9e:	00 1c       	adc	r0, r0
      a0:	3e 7c       	andi	r19, 0xCE	; 206
      a2:	3e 1c       	adc	r3, r14
      a4:	00 18       	sub	r0, r0
      a6:	3c 7e       	andi	r19, 0xEC	; 236
      a8:	3c 18       	sub	r3, r12
      aa:	00 30       	cpi	r16, 0x00	; 0
      ac:	36 7f       	andi	r19, 0xF6	; 246
      ae:	36 30       	cpi	r19, 0x06	; 6
      b0:	00 18       	sub	r0, r0
      b2:	5c 7e       	andi	r21, 0xEC	; 236
      b4:	5c 18       	sub	r5, r12
	...
      ce:	00 30       	cpi	r16, 0x00	; 0
      d0:	48 4a       	sbci	r20, 0xA8	; 168
      d2:	36 0e       	add	r3, r22
      d4:	00 06       	cpc	r0, r16
      d6:	29 79       	andi	r18, 0x99	; 153
      d8:	29 06       	cpc	r2, r25
      da:	00 00       	nop
      dc:	00 00       	nop
      de:	00 00       	nop
      e0:	00 60       	ori	r16, 0x00	; 0
      e2:	7e 0a       	sbc	r7, r30
      e4:	35 3f       	cpi	r19, 0xF5	; 245
      e6:	00 2a       	or	r0, r16
      e8:	1c 36       	cpi	r17, 0x6C	; 108
      ea:	1c 2a       	or	r1, r28
      ec:	00 00       	nop
      ee:	7f 3e       	cpi	r23, 0xEF	; 239
      f0:	1c 08       	sbc	r1, r12
      f2:	00 08       	sbc	r0, r0
      f4:	1c 3e       	cpi	r17, 0xEC	; 236
      f6:	7f 00       	.word	0x007f	; ????
      f8:	00 14       	cp	r0, r0
      fa:	36 7f       	andi	r19, 0xF6	; 246
      fc:	36 14       	cp	r3, r6
      fe:	00 00       	nop
     100:	5f 00       	.word	0x005f	; ????
     102:	5f 00       	.word	0x005f	; ????
     104:	00 06       	cpc	r0, r16
     106:	09 7f       	andi	r16, 0xF9	; 249
     108:	01 7f       	andi	r16, 0xF1	; 241
     10a:	00 22       	and	r0, r16
     10c:	4d 55       	subi	r20, 0x5D	; 93
     10e:	59 22       	and	r5, r25
     110:	00 60       	ori	r16, 0x00	; 0
     112:	60 60       	ori	r22, 0x00	; 0
     114:	60 00       	.word	0x0060	; ????
     116:	00 14       	cp	r0, r0
     118:	b6 ff       	sbrs	r27, 6
     11a:	b6 14       	cp	r11, r6
     11c:	00 04       	cpc	r0, r0
     11e:	06 7f       	andi	r16, 0xF6	; 246
     120:	06 04       	cpc	r0, r6
     122:	00 10       	cpse	r0, r0
     124:	30 7f       	andi	r19, 0xF0	; 240
     126:	30 10       	cpse	r3, r0
     128:	00 08       	sbc	r0, r0
     12a:	08 3e       	cpi	r16, 0xE8	; 232
     12c:	1c 08       	sbc	r1, r12
     12e:	00 08       	sbc	r0, r0
     130:	1c 3e       	cpi	r17, 0xEC	; 236
     132:	08 08       	sbc	r0, r8
     134:	00 78       	andi	r16, 0x80	; 128
     136:	40 40       	sbci	r20, 0x00	; 0
     138:	40 40       	sbci	r20, 0x00	; 0
     13a:	00 08       	sbc	r0, r0
     13c:	3e 08       	sbc	r3, r14
     13e:	3e 08       	sbc	r3, r14
     140:	00 30       	cpi	r16, 0x00	; 0
     142:	3c 3f       	cpi	r19, 0xFC	; 252
     144:	3c 30       	cpi	r19, 0x0C	; 12
     146:	00 03       	mulsu	r16, r16
     148:	0f 3f       	cpi	r16, 0xFF	; 255
     14a:	0f 03       	fmul	r16, r23
	...
     154:	06 5f       	subi	r16, 0xF6	; 246
     156:	06 00       	.word	0x0006	; ????
     158:	00 07       	cpc	r16, r16
     15a:	03 00       	.word	0x0003	; ????
     15c:	07 03       	mulsu	r16, r23
     15e:	00 24       	eor	r0, r0
     160:	7e 24       	eor	r7, r14
     162:	7e 24       	eor	r7, r14
     164:	00 24       	eor	r0, r0
     166:	2b 6a       	ori	r18, 0xAB	; 171
     168:	12 00       	.word	0x0012	; ????
     16a:	00 63       	ori	r16, 0x30	; 48
     16c:	13 08       	sbc	r1, r3
     16e:	64 63       	ori	r22, 0x34	; 52
     170:	00 36       	cpi	r16, 0x60	; 96
     172:	49 56       	subi	r20, 0x69	; 105
     174:	20 50       	subi	r18, 0x00	; 0
     176:	00 00       	nop
     178:	07 03       	mulsu	r16, r23
     17a:	00 00       	nop
     17c:	00 00       	nop
     17e:	3e 41       	sbci	r19, 0x1E	; 30
     180:	00 00       	nop
     182:	00 00       	nop
     184:	41 3e       	cpi	r20, 0xE1	; 225
     186:	00 00       	nop
     188:	00 08       	sbc	r0, r0
     18a:	3e 1c       	adc	r3, r14
     18c:	3e 08       	sbc	r3, r14
     18e:	00 08       	sbc	r0, r0
     190:	08 3e       	cpi	r16, 0xE8	; 232
     192:	08 08       	sbc	r0, r8
     194:	00 00       	nop
     196:	e0 60       	ori	r30, 0x00	; 0
     198:	00 00       	nop
     19a:	00 08       	sbc	r0, r0
     19c:	08 08       	sbc	r0, r8
     19e:	08 08       	sbc	r0, r8
     1a0:	00 00       	nop
     1a2:	60 60       	ori	r22, 0x00	; 0
     1a4:	00 00       	nop
     1a6:	00 20       	and	r0, r0
     1a8:	10 08       	sbc	r1, r0
     1aa:	04 02       	muls	r16, r20
     1ac:	00 3e       	cpi	r16, 0xE0	; 224
     1ae:	51 49       	sbci	r21, 0x91	; 145
     1b0:	45 3e       	cpi	r20, 0xE5	; 229
     1b2:	00 00       	nop
     1b4:	42 7f       	andi	r20, 0xF2	; 242
     1b6:	40 00       	.word	0x0040	; ????
     1b8:	00 62       	ori	r16, 0x20	; 32
     1ba:	51 49       	sbci	r21, 0x91	; 145
     1bc:	49 46       	sbci	r20, 0x69	; 105
     1be:	00 22       	and	r0, r16
     1c0:	49 49       	sbci	r20, 0x99	; 153
     1c2:	49 36       	cpi	r20, 0x69	; 105
     1c4:	00 18       	sub	r0, r0
     1c6:	14 12       	cpse	r1, r20
     1c8:	7f 10       	cpse	r7, r15
     1ca:	00 2f       	mov	r16, r16
     1cc:	49 49       	sbci	r20, 0x99	; 153
     1ce:	49 31       	cpi	r20, 0x19	; 25
     1d0:	00 3c       	cpi	r16, 0xC0	; 192
     1d2:	4a 49       	sbci	r20, 0x9A	; 154
     1d4:	49 30       	cpi	r20, 0x09	; 9
     1d6:	00 01       	movw	r0, r0
     1d8:	71 09       	sbc	r23, r1
     1da:	05 03       	mulsu	r16, r21
     1dc:	00 36       	cpi	r16, 0x60	; 96
     1de:	49 49       	sbci	r20, 0x99	; 153
     1e0:	49 36       	cpi	r20, 0x69	; 105
     1e2:	00 06       	cpc	r0, r16
     1e4:	49 49       	sbci	r20, 0x99	; 153
     1e6:	29 1e       	adc	r2, r25
     1e8:	00 00       	nop
     1ea:	6c 6c       	ori	r22, 0xCC	; 204
     1ec:	00 00       	nop
     1ee:	00 00       	nop
     1f0:	ec 6c       	ori	r30, 0xCC	; 204
     1f2:	00 00       	nop
     1f4:	00 08       	sbc	r0, r0
     1f6:	14 22       	and	r1, r20
     1f8:	41 00       	.word	0x0041	; ????
     1fa:	00 24       	eor	r0, r0
     1fc:	24 24       	eor	r2, r4
     1fe:	24 24       	eor	r2, r4
     200:	00 00       	nop
     202:	41 22       	and	r4, r17
     204:	14 08       	sbc	r1, r4
     206:	00 02       	muls	r16, r16
     208:	01 59       	subi	r16, 0x91	; 145
     20a:	09 06       	cpc	r0, r25
     20c:	00 3e       	cpi	r16, 0xE0	; 224
     20e:	41 5d       	subi	r20, 0xD1	; 209
     210:	55 1e       	adc	r5, r21
     212:	00 7e       	andi	r16, 0xE0	; 224
     214:	11 11       	cpse	r17, r1
     216:	11 7e       	andi	r17, 0xE1	; 225
     218:	00 7f       	andi	r16, 0xF0	; 240
     21a:	49 49       	sbci	r20, 0x99	; 153
     21c:	49 36       	cpi	r20, 0x69	; 105
     21e:	00 3e       	cpi	r16, 0xE0	; 224
     220:	41 41       	sbci	r20, 0x11	; 17
     222:	41 22       	and	r4, r17
     224:	00 7f       	andi	r16, 0xF0	; 240
     226:	41 41       	sbci	r20, 0x11	; 17
     228:	41 3e       	cpi	r20, 0xE1	; 225
     22a:	00 7f       	andi	r16, 0xF0	; 240
     22c:	49 49       	sbci	r20, 0x99	; 153
     22e:	49 41       	sbci	r20, 0x19	; 25
     230:	00 7f       	andi	r16, 0xF0	; 240
     232:	09 09       	sbc	r16, r9
     234:	09 01       	movw	r0, r18
     236:	00 3e       	cpi	r16, 0xE0	; 224
     238:	41 49       	sbci	r20, 0x91	; 145
     23a:	49 7a       	andi	r20, 0xA9	; 169
     23c:	00 7f       	andi	r16, 0xF0	; 240
     23e:	08 08       	sbc	r0, r8
     240:	08 7f       	andi	r16, 0xF8	; 248
     242:	00 00       	nop
     244:	41 7f       	andi	r20, 0xF1	; 241
     246:	41 00       	.word	0x0041	; ????
     248:	00 30       	cpi	r16, 0x00	; 0
     24a:	40 40       	sbci	r20, 0x00	; 0
     24c:	40 3f       	cpi	r20, 0xF0	; 240
     24e:	00 7f       	andi	r16, 0xF0	; 240
     250:	08 14       	cp	r0, r8
     252:	22 41       	sbci	r18, 0x12	; 18
     254:	00 7f       	andi	r16, 0xF0	; 240
     256:	40 40       	sbci	r20, 0x00	; 0
     258:	40 40       	sbci	r20, 0x00	; 0
     25a:	00 7f       	andi	r16, 0xF0	; 240
     25c:	02 04       	cpc	r0, r2
     25e:	02 7f       	andi	r16, 0xF2	; 242
     260:	00 7f       	andi	r16, 0xF0	; 240
     262:	02 04       	cpc	r0, r2
     264:	08 7f       	andi	r16, 0xF8	; 248
     266:	00 3e       	cpi	r16, 0xE0	; 224
     268:	41 41       	sbci	r20, 0x11	; 17
     26a:	41 3e       	cpi	r20, 0xE1	; 225
     26c:	00 7f       	andi	r16, 0xF0	; 240
     26e:	09 09       	sbc	r16, r9
     270:	09 06       	cpc	r0, r25
     272:	00 3e       	cpi	r16, 0xE0	; 224
     274:	41 51       	subi	r20, 0x11	; 17
     276:	21 5e       	subi	r18, 0xE1	; 225
     278:	00 7f       	andi	r16, 0xF0	; 240
     27a:	09 09       	sbc	r16, r9
     27c:	19 66       	ori	r17, 0x69	; 105
     27e:	00 26       	eor	r0, r16
     280:	49 49       	sbci	r20, 0x99	; 153
     282:	49 32       	cpi	r20, 0x29	; 41
     284:	00 01       	movw	r0, r0
     286:	01 7f       	andi	r16, 0xF1	; 241
     288:	01 01       	movw	r0, r2
     28a:	00 3f       	cpi	r16, 0xF0	; 240
     28c:	40 40       	sbci	r20, 0x00	; 0
     28e:	40 3f       	cpi	r20, 0xF0	; 240
     290:	00 1f       	adc	r16, r16
     292:	20 40       	sbci	r18, 0x00	; 0
     294:	20 1f       	adc	r18, r16
     296:	00 3f       	cpi	r16, 0xF0	; 240
     298:	40 3c       	cpi	r20, 0xC0	; 192
     29a:	40 3f       	cpi	r20, 0xF0	; 240
     29c:	00 63       	ori	r16, 0x30	; 48
     29e:	14 08       	sbc	r1, r4
     2a0:	14 63       	ori	r17, 0x34	; 52
     2a2:	00 07       	cpc	r16, r16
     2a4:	08 70       	andi	r16, 0x08	; 8
     2a6:	08 07       	cpc	r16, r24
     2a8:	00 71       	andi	r16, 0x10	; 16
     2aa:	49 45       	sbci	r20, 0x59	; 89
     2ac:	43 00       	.word	0x0043	; ????
     2ae:	00 00       	nop
     2b0:	7f 41       	sbci	r23, 0x1F	; 31
     2b2:	41 00       	.word	0x0041	; ????
     2b4:	00 02       	muls	r16, r16
     2b6:	04 08       	sbc	r0, r4
     2b8:	10 20       	and	r1, r0
     2ba:	00 00       	nop
     2bc:	41 41       	sbci	r20, 0x11	; 17
     2be:	7f 00       	.word	0x007f	; ????
     2c0:	00 04       	cpc	r0, r0
     2c2:	02 01       	movw	r0, r4
     2c4:	02 04       	cpc	r0, r2
     2c6:	80 80       	ld	r8, Z
     2c8:	80 80       	ld	r8, Z
     2ca:	80 80       	ld	r8, Z
     2cc:	00 00       	nop
     2ce:	03 07       	cpc	r16, r19
     2d0:	00 00       	nop
     2d2:	00 20       	and	r0, r0
     2d4:	54 54       	subi	r21, 0x44	; 68
     2d6:	54 78       	andi	r21, 0x84	; 132
     2d8:	00 7f       	andi	r16, 0xF0	; 240
     2da:	44 44       	sbci	r20, 0x44	; 68
     2dc:	44 38       	cpi	r20, 0x84	; 132
     2de:	00 38       	cpi	r16, 0x80	; 128
     2e0:	44 44       	sbci	r20, 0x44	; 68
     2e2:	44 28       	or	r4, r4
     2e4:	00 38       	cpi	r16, 0x80	; 128
     2e6:	44 44       	sbci	r20, 0x44	; 68
     2e8:	44 7f       	andi	r20, 0xF4	; 244
     2ea:	00 38       	cpi	r16, 0x80	; 128
     2ec:	54 54       	subi	r21, 0x44	; 68
     2ee:	54 08       	sbc	r5, r4
     2f0:	00 08       	sbc	r0, r0
     2f2:	7e 09       	sbc	r23, r14
     2f4:	09 00       	.word	0x0009	; ????
     2f6:	00 18       	sub	r0, r0
     2f8:	a4 a4       	ldd	r10, Z+44	; 0x2c
     2fa:	a4 7c       	andi	r26, 0xC4	; 196
     2fc:	00 7f       	andi	r16, 0xF0	; 240
     2fe:	04 04       	cpc	r0, r4
     300:	78 00       	.word	0x0078	; ????
     302:	00 00       	nop
     304:	00 7d       	andi	r16, 0xD0	; 208
     306:	40 00       	.word	0x0040	; ????
     308:	00 40       	sbci	r16, 0x00	; 0
     30a:	80 84       	ldd	r8, Z+8	; 0x08
     30c:	7d 00       	.word	0x007d	; ????
     30e:	00 7f       	andi	r16, 0xF0	; 240
     310:	10 28       	or	r1, r0
     312:	44 00       	.word	0x0044	; ????
     314:	00 00       	nop
     316:	00 7f       	andi	r16, 0xF0	; 240
     318:	40 00       	.word	0x0040	; ????
     31a:	00 7c       	andi	r16, 0xC0	; 192
     31c:	04 18       	sub	r0, r4
     31e:	04 78       	andi	r16, 0x84	; 132
     320:	00 7c       	andi	r16, 0xC0	; 192
     322:	04 04       	cpc	r0, r4
     324:	78 00       	.word	0x0078	; ????
     326:	00 38       	cpi	r16, 0x80	; 128
     328:	44 44       	sbci	r20, 0x44	; 68
     32a:	44 38       	cpi	r20, 0x84	; 132
     32c:	00 fc       	sbrc	r0, 0
     32e:	44 44       	sbci	r20, 0x44	; 68
     330:	44 38       	cpi	r20, 0x84	; 132
     332:	00 38       	cpi	r16, 0x80	; 128
     334:	44 44       	sbci	r20, 0x44	; 68
     336:	44 fc       	sbrc	r4, 4
     338:	00 44       	sbci	r16, 0x40	; 64
     33a:	78 44       	sbci	r23, 0x48	; 72
     33c:	04 08       	sbc	r0, r4
     33e:	00 08       	sbc	r0, r0
     340:	54 54       	subi	r21, 0x44	; 68
     342:	54 20       	and	r5, r4
     344:	00 04       	cpc	r0, r0
     346:	3e 44       	sbci	r19, 0x4E	; 78
     348:	24 00       	.word	0x0024	; ????
     34a:	00 3c       	cpi	r16, 0xC0	; 192
     34c:	40 20       	and	r4, r0
     34e:	7c 00       	.word	0x007c	; ????
     350:	00 1c       	adc	r0, r0
     352:	20 40       	sbci	r18, 0x00	; 0
     354:	20 1c       	adc	r2, r0
     356:	00 3c       	cpi	r16, 0xC0	; 192
     358:	60 30       	cpi	r22, 0x00	; 0
     35a:	60 3c       	cpi	r22, 0xC0	; 192
     35c:	00 6c       	ori	r16, 0xC0	; 192
     35e:	10 10       	cpse	r1, r0
     360:	6c 00       	.word	0x006c	; ????
     362:	00 9c       	mul	r0, r0
     364:	a0 60       	ori	r26, 0x00	; 0
     366:	3c 00       	.word	0x003c	; ????
     368:	00 64       	ori	r16, 0x40	; 64
     36a:	54 54       	subi	r21, 0x44	; 68
     36c:	4c 00       	.word	0x004c	; ????
     36e:	00 08       	sbc	r0, r0
     370:	3e 41       	sbci	r19, 0x1E	; 30
     372:	41 00       	.word	0x0041	; ????
     374:	00 00       	nop
     376:	00 77       	andi	r16, 0x70	; 112
     378:	00 00       	nop
     37a:	00 00       	nop
     37c:	41 41       	sbci	r20, 0x11	; 17
     37e:	3e 08       	sbc	r3, r14
     380:	00 02       	muls	r16, r16
     382:	01 02       	muls	r16, r17
     384:	01 00       	.word	0x0001	; ????
     386:	00 3c       	cpi	r16, 0xC0	; 192
     388:	26 23       	and	r18, r22
     38a:	26 3c       	cpi	r18, 0xC6	; 198
     38c:	00 1e       	adc	r0, r16
     38e:	a1 e1       	ldi	r26, 0x11	; 17
     390:	21 12       	cpse	r2, r17
     392:	00 3d       	cpi	r16, 0xD0	; 208
     394:	40 20       	and	r4, r0
     396:	7d 00       	.word	0x007d	; ????
     398:	00 38       	cpi	r16, 0x80	; 128
     39a:	54 54       	subi	r21, 0x44	; 68
     39c:	55 09       	sbc	r21, r5
     39e:	00 20       	and	r0, r0
     3a0:	55 55       	subi	r21, 0x55	; 85
     3a2:	55 78       	andi	r21, 0x85	; 133
     3a4:	00 20       	and	r0, r0
     3a6:	55 54       	subi	r21, 0x45	; 69
     3a8:	55 78       	andi	r21, 0x85	; 133
     3aa:	00 20       	and	r0, r0
     3ac:	55 55       	subi	r21, 0x55	; 85
     3ae:	54 78       	andi	r21, 0x84	; 132
     3b0:	00 20       	and	r0, r0
     3b2:	57 55       	subi	r21, 0x57	; 87
     3b4:	57 78       	andi	r21, 0x87	; 135
     3b6:	00 1c       	adc	r0, r0
     3b8:	a2 e2       	ldi	r26, 0x22	; 34
     3ba:	22 14       	cp	r2, r2
     3bc:	00 38       	cpi	r16, 0x80	; 128
     3be:	55 55       	subi	r21, 0x55	; 85
     3c0:	55 08       	sbc	r5, r5
     3c2:	00 38       	cpi	r16, 0x80	; 128
     3c4:	55 54       	subi	r21, 0x45	; 69
     3c6:	55 08       	sbc	r5, r5
     3c8:	00 38       	cpi	r16, 0x80	; 128
     3ca:	55 55       	subi	r21, 0x55	; 85
     3cc:	54 08       	sbc	r5, r4
     3ce:	00 00       	nop
     3d0:	01 7c       	andi	r16, 0xC1	; 193
     3d2:	41 00       	.word	0x0041	; ????
     3d4:	00 00       	nop
     3d6:	01 7d       	andi	r16, 0xD1	; 209
     3d8:	41 00       	.word	0x0041	; ????
     3da:	00 00       	nop
     3dc:	01 7c       	andi	r16, 0xC1	; 193
     3de:	40 00       	.word	0x0040	; ????
     3e0:	00 70       	andi	r16, 0x00	; 0
     3e2:	29 24       	eor	r2, r9
     3e4:	29 70       	andi	r18, 0x09	; 9
     3e6:	00 78       	andi	r16, 0x80	; 128
     3e8:	2f 25       	eor	r18, r15
     3ea:	2f 78       	andi	r18, 0x8F	; 143
     3ec:	00 7c       	andi	r16, 0xC0	; 192
     3ee:	54 54       	subi	r21, 0x44	; 68
     3f0:	55 45       	sbci	r21, 0x55	; 85
     3f2:	00 34       	cpi	r16, 0x40	; 64
     3f4:	54 7c       	andi	r21, 0xC4	; 196
     3f6:	54 58       	subi	r21, 0x84	; 132
     3f8:	00 7e       	andi	r16, 0xE0	; 224
     3fa:	09 7f       	andi	r16, 0xF9	; 249
     3fc:	49 49       	sbci	r20, 0x99	; 153
     3fe:	00 38       	cpi	r16, 0x80	; 128
     400:	45 45       	sbci	r20, 0x55	; 85
     402:	39 00       	.word	0x0039	; ????
     404:	00 38       	cpi	r16, 0x80	; 128
     406:	45 44       	sbci	r20, 0x45	; 69
     408:	39 00       	.word	0x0039	; ????
     40a:	00 39       	cpi	r16, 0x90	; 144
     40c:	45 44       	sbci	r20, 0x45	; 69
     40e:	38 00       	.word	0x0038	; ????
     410:	00 3c       	cpi	r16, 0xC0	; 192
     412:	41 21       	and	r20, r1
     414:	7d 00       	.word	0x007d	; ????
     416:	00 3d       	cpi	r16, 0xD0	; 208
     418:	41 20       	and	r4, r1
     41a:	7c 00       	.word	0x007c	; ????
     41c:	00 9c       	mul	r0, r0
     41e:	a1 60       	ori	r26, 0x01	; 1
     420:	3d 00       	.word	0x003d	; ????
     422:	00 3d       	cpi	r16, 0xD0	; 208
     424:	42 42       	sbci	r20, 0x22	; 34
     426:	3d 00       	.word	0x003d	; ????
     428:	00 3c       	cpi	r16, 0xC0	; 192
     42a:	41 40       	sbci	r20, 0x01	; 1
     42c:	3d 00       	.word	0x003d	; ????
     42e:	80 70       	andi	r24, 0x00	; 0
     430:	68 58       	subi	r22, 0x88	; 136
     432:	38 04       	cpc	r3, r8
     434:	00 48       	sbci	r16, 0x80	; 128
     436:	3e 49       	sbci	r19, 0x9E	; 158
     438:	49 62       	ori	r20, 0x29	; 41
     43a:	00 7e       	andi	r16, 0xE0	; 224
     43c:	61 5d       	subi	r22, 0xD1	; 209
     43e:	43 3f       	cpi	r20, 0xF3	; 243
     440:	00 22       	and	r0, r16
     442:	14 08       	sbc	r1, r4
     444:	14 22       	and	r1, r20
     446:	00 40       	sbci	r16, 0x00	; 0
     448:	88 7e       	andi	r24, 0xE8	; 232
     44a:	09 02       	muls	r16, r25
     44c:	00 20       	and	r0, r0
     44e:	54 55       	subi	r21, 0x54	; 84
     450:	55 78       	andi	r21, 0x85	; 133
     452:	00 00       	nop
     454:	00 7d       	andi	r16, 0xD0	; 208
     456:	41 00       	.word	0x0041	; ????
     458:	00 38       	cpi	r16, 0x80	; 128
     45a:	44 45       	sbci	r20, 0x54	; 84
     45c:	39 00       	.word	0x0039	; ????
     45e:	00 3c       	cpi	r16, 0xC0	; 192
     460:	40 21       	and	r20, r0
     462:	7d 00       	.word	0x007d	; ????
     464:	00 7a       	andi	r16, 0xA0	; 160
     466:	09 0a       	sbc	r0, r25
     468:	71 00       	.word	0x0071	; ????
     46a:	00 7a       	andi	r16, 0xA0	; 160
     46c:	11 22       	and	r1, r17
     46e:	79 00       	.word	0x0079	; ????
     470:	00 08       	sbc	r0, r0
     472:	55 55       	subi	r21, 0x55	; 85
     474:	55 5e       	subi	r21, 0xE5	; 229
     476:	00 4e       	sbci	r16, 0xE0	; 224
     478:	51 51       	subi	r21, 0x11	; 17
     47a:	4e 00       	.word	0x004e	; ????
     47c:	00 30       	cpi	r16, 0x00	; 0
     47e:	48 4d       	sbci	r20, 0xD8	; 216
     480:	40 20       	and	r4, r0
     482:	3e 41       	sbci	r19, 0x1E	; 30
     484:	5d 4b       	sbci	r21, 0xBD	; 189
     486:	55 3e       	cpi	r21, 0xE5	; 229
     488:	04 04       	cpc	r0, r4
     48a:	04 04       	cpc	r0, r4
     48c:	04 1c       	adc	r0, r4
     48e:	00 17       	cp	r16, r16
     490:	08 4c       	sbci	r16, 0xC8	; 200
     492:	6a 50       	subi	r22, 0x0A	; 10
     494:	00 17       	cp	r16, r16
     496:	08 34       	cpi	r16, 0x48	; 72
     498:	2a 78       	andi	r18, 0x8A	; 138
     49a:	00 00       	nop
     49c:	30 7d       	andi	r19, 0xD0	; 208
     49e:	30 00       	.word	0x0030	; ????
     4a0:	00 08       	sbc	r0, r0
     4a2:	14 00       	.word	0x0014	; ????
     4a4:	08 14       	cp	r0, r8
     4a6:	00 14       	cp	r0, r0
     4a8:	08 00       	.word	0x0008	; ????
     4aa:	14 08       	sbc	r1, r4
     4ac:	44 11       	cpse	r20, r4
     4ae:	44 11       	cpse	r20, r4
     4b0:	44 11       	cpse	r20, r4
     4b2:	aa 55       	subi	r26, 0x5A	; 90
     4b4:	aa 55       	subi	r26, 0x5A	; 90
     4b6:	aa 55       	subi	r26, 0x5A	; 90
     4b8:	bb ee       	ldi	r27, 0xEB	; 235
     4ba:	bb ee       	ldi	r27, 0xEB	; 235
     4bc:	bb ee       	ldi	r27, 0xEB	; 235
     4be:	00 00       	nop
     4c0:	00 ff       	sbrs	r16, 0
     4c2:	00 00       	nop
     4c4:	08 08       	sbc	r0, r8
     4c6:	08 ff       	.word	0xff08	; ????
     4c8:	00 00       	nop
     4ca:	00 70       	andi	r16, 0x00	; 0
     4cc:	28 25       	eor	r18, r8
     4ce:	29 70       	andi	r18, 0x09	; 9
     4d0:	00 70       	andi	r16, 0x00	; 0
     4d2:	29 25       	eor	r18, r9
     4d4:	29 70       	andi	r18, 0x09	; 9
     4d6:	00 70       	andi	r16, 0x00	; 0
     4d8:	29 25       	eor	r18, r9
     4da:	28 70       	andi	r18, 0x08	; 8
     4dc:	3e 41       	sbci	r19, 0x1E	; 30
     4de:	5d 55       	subi	r21, 0x5D	; 93
     4e0:	41 3e       	cpi	r20, 0xE1	; 225
     4e2:	0a fb       	.word	0xfb0a	; ????
     4e4:	00 ff       	sbrs	r16, 0
     4e6:	00 00       	nop
     4e8:	00 ff       	sbrs	r16, 0
     4ea:	00 ff       	sbrs	r16, 0
     4ec:	00 00       	nop
     4ee:	0a fa       	.word	0xfa0a	; ????
     4f0:	02 fe       	sbrs	r0, 2
     4f2:	00 00       	nop
     4f4:	0a 0b       	sbc	r16, r26
     4f6:	08 0f       	add	r16, r24
     4f8:	00 00       	nop
     4fa:	00 18       	sub	r0, r0
     4fc:	24 66       	ori	r18, 0x64	; 100
     4fe:	24 00       	.word	0x0024	; ????
     500:	00 29       	or	r16, r0
     502:	2a 7c       	andi	r18, 0xCA	; 202
     504:	2a 29       	or	r18, r10
     506:	08 08       	sbc	r0, r8
     508:	08 f8       	.word	0xf808	; ????
     50a:	00 00       	nop
     50c:	00 00       	nop
     50e:	00 0f       	add	r16, r16
     510:	08 08       	sbc	r0, r8
     512:	08 08       	sbc	r0, r8
     514:	08 0f       	add	r16, r24
     516:	08 08       	sbc	r0, r8
     518:	08 08       	sbc	r0, r8
     51a:	08 f8       	.word	0xf808	; ????
     51c:	08 08       	sbc	r0, r8
     51e:	00 00       	nop
     520:	00 ff       	sbrs	r16, 0
     522:	08 08       	sbc	r0, r8
     524:	08 08       	sbc	r0, r8
     526:	08 08       	sbc	r0, r8
     528:	08 08       	sbc	r0, r8
     52a:	08 08       	sbc	r0, r8
     52c:	08 ff       	.word	0xff08	; ????
     52e:	08 08       	sbc	r0, r8
     530:	00 20       	and	r0, r0
     532:	56 55       	subi	r21, 0x56	; 86
     534:	56 79       	andi	r21, 0x96	; 150
     536:	00 70       	andi	r16, 0x00	; 0
     538:	2a 25       	eor	r18, r10
     53a:	2a 71       	andi	r18, 0x1A	; 26
     53c:	00 0f       	add	r16, r16
     53e:	08 0b       	sbc	r16, r24
     540:	0a 0a       	sbc	r0, r26
     542:	00 fe       	sbrs	r0, 0
     544:	02 fa       	bst	r0, 2
     546:	0a 0a       	sbc	r0, r26
     548:	0a 0b       	sbc	r16, r26
     54a:	08 0b       	sbc	r16, r24
     54c:	0a 0a       	sbc	r0, r26
     54e:	0a fa       	.word	0xfa0a	; ????
     550:	02 fa       	bst	r0, 2
     552:	0a 0a       	sbc	r0, r26
     554:	00 ff       	sbrs	r16, 0
     556:	00 fb       	bst	r16, 0
     558:	0a 0a       	sbc	r0, r26
     55a:	0a 0a       	sbc	r0, r26
     55c:	0a 0a       	sbc	r0, r26
     55e:	0a 0a       	sbc	r0, r26
     560:	0a fb       	.word	0xfb0a	; ????
     562:	00 fb       	bst	r16, 0
     564:	0a 0a       	sbc	r0, r26
     566:	00 5d       	subi	r16, 0xD0	; 208
     568:	22 22       	and	r2, r18
     56a:	22 5d       	subi	r18, 0xD2	; 210
     56c:	00 22       	and	r0, r16
     56e:	55 59       	subi	r21, 0x95	; 149
     570:	30 00       	.word	0x0030	; ????
     572:	00 08       	sbc	r0, r0
     574:	7f 49       	sbci	r23, 0x9F	; 159
     576:	41 3e       	cpi	r20, 0xE1	; 225
     578:	00 7c       	andi	r16, 0xC0	; 192
     57a:	55 55       	subi	r21, 0x55	; 85
     57c:	55 44       	sbci	r21, 0x45	; 69
     57e:	00 7c       	andi	r16, 0xC0	; 192
     580:	55 54       	subi	r21, 0x45	; 69
     582:	55 44       	sbci	r21, 0x45	; 69
     584:	00 7c       	andi	r16, 0xC0	; 192
     586:	55 55       	subi	r21, 0x55	; 85
     588:	54 44       	sbci	r21, 0x44	; 68
     58a:	00 00       	nop
     58c:	00 07       	cpc	r16, r16
     58e:	00 00       	nop
     590:	00 00       	nop
     592:	44 7d       	andi	r20, 0xD4	; 212
     594:	45 00       	.word	0x0045	; ????
     596:	00 00       	nop
     598:	45 7d       	andi	r20, 0xD5	; 213
     59a:	45 00       	.word	0x0045	; ????
     59c:	00 00       	nop
     59e:	45 7c       	andi	r20, 0xC5	; 197
     5a0:	45 00       	.word	0x0045	; ????
     5a2:	08 08       	sbc	r0, r8
     5a4:	08 0f       	add	r16, r24
     5a6:	00 00       	nop
     5a8:	00 00       	nop
     5aa:	00 f8       	bld	r0, 0
     5ac:	08 08       	sbc	r0, r8
     5ae:	ff ff       	.word	0xffff	; ????
     5b0:	ff ff       	.word	0xffff	; ????
     5b2:	ff ff       	.word	0xffff	; ????
     5b4:	f0 f0       	brcs	.+60     	; 0x5f2 <__LOCK_REGION_LENGTH__+0x1f2>
     5b6:	f0 f0       	brcs	.+60     	; 0x5f4 <__LOCK_REGION_LENGTH__+0x1f4>
     5b8:	f0 f0       	brcs	.+60     	; 0x5f6 <__LOCK_REGION_LENGTH__+0x1f6>
     5ba:	00 00       	nop
     5bc:	00 77       	andi	r16, 0x70	; 112
     5be:	00 00       	nop
     5c0:	00 00       	nop
     5c2:	45 7d       	andi	r20, 0xD5	; 213
     5c4:	44 00       	.word	0x0044	; ????
     5c6:	0f 0f       	add	r16, r31
     5c8:	0f 0f       	add	r16, r31
     5ca:	0f 0f       	add	r16, r31
     5cc:	00 3c       	cpi	r16, 0xC0	; 192
     5ce:	42 43       	sbci	r20, 0x32	; 50
     5d0:	3d 00       	.word	0x003d	; ????
     5d2:	00 fe       	sbrs	r0, 0
     5d4:	4a 4a       	sbci	r20, 0xAA	; 170
     5d6:	34 00       	.word	0x0034	; ????
     5d8:	00 3c       	cpi	r16, 0xC0	; 192
     5da:	43 43       	sbci	r20, 0x33	; 51
     5dc:	3d 00       	.word	0x003d	; ????
     5de:	00 3d       	cpi	r16, 0xD0	; 208
     5e0:	43 42       	sbci	r20, 0x23	; 35
     5e2:	3c 00       	.word	0x003c	; ????
     5e4:	00 32       	cpi	r16, 0x20	; 32
     5e6:	49 4a       	sbci	r20, 0xA9	; 169
     5e8:	31 00       	.word	0x0031	; ????
     5ea:	00 3a       	cpi	r16, 0xA0	; 160
     5ec:	45 46       	sbci	r20, 0x65	; 101
     5ee:	39 00       	.word	0x0039	; ????
     5f0:	00 fc       	sbrc	r0, 0
     5f2:	20 20       	and	r2, r0
     5f4:	1c 00       	.word	0x001c	; ????
     5f6:	00 fe       	sbrs	r0, 0
     5f8:	aa 28       	or	r10, r10
     5fa:	10 00       	.word	0x0010	; ????
     5fc:	00 ff       	sbrs	r16, 0
     5fe:	a5 24       	eor	r10, r5
     600:	18 00       	.word	0x0018	; ????
     602:	00 3c       	cpi	r16, 0xC0	; 192
     604:	40 41       	sbci	r20, 0x10	; 16
     606:	3d 00       	.word	0x003d	; ????
     608:	00 3c       	cpi	r16, 0xC0	; 192
     60a:	41 41       	sbci	r20, 0x11	; 17
     60c:	3d 00       	.word	0x003d	; ????
     60e:	00 3d       	cpi	r16, 0xD0	; 208
     610:	41 40       	sbci	r20, 0x01	; 1
     612:	3c 00       	.word	0x003c	; ????
     614:	00 9c       	mul	r0, r0
     616:	a0 61       	ori	r26, 0x10	; 16
     618:	3d 00       	.word	0x003d	; ????
     61a:	00 04       	cpc	r0, r0
     61c:	08 71       	andi	r16, 0x18	; 24
     61e:	09 04       	cpc	r0, r9
     620:	00 00       	nop
     622:	02 02       	muls	r16, r18
     624:	02 00       	.word	0x0002	; ????
     626:	00 00       	nop
     628:	07 03       	mulsu	r16, r23
     62a:	00 00       	nop
     62c:	00 00       	nop
     62e:	08 08       	sbc	r0, r8
     630:	08 00       	.word	0x0008	; ????
     632:	00 00       	nop
     634:	24 2e       	mov	r2, r20
     636:	24 00       	.word	0x0024	; ????
     638:	00 24       	eor	r0, r0
     63a:	24 24       	eor	r2, r4
     63c:	24 24       	eor	r2, r4
     63e:	05 17       	cp	r16, r21
     640:	0a 34       	cpi	r16, 0x4A	; 74
     642:	2a 78       	andi	r18, 0x8A	; 138
     644:	00 06       	cpc	r0, r16
     646:	09 7f       	andi	r16, 0xF9	; 249
     648:	01 7f       	andi	r16, 0xF1	; 241
     64a:	00 22       	and	r0, r16
     64c:	4d 55       	subi	r20, 0x5D	; 93
     64e:	59 22       	and	r5, r25
     650:	00 08       	sbc	r0, r0
     652:	08 2a       	or	r0, r24
     654:	08 08       	sbc	r0, r8
     656:	00 00       	nop
     658:	08 18       	sub	r0, r8
     65a:	18 00       	.word	0x0018	; ????
     65c:	00 06       	cpc	r0, r16
     65e:	09 09       	sbc	r16, r9
     660:	06 00       	.word	0x0006	; ????
     662:	00 00       	nop
     664:	08 00       	.word	0x0008	; ????
     666:	08 00       	.word	0x0008	; ????
     668:	00 00       	nop
     66a:	08 00       	.word	0x0008	; ????
     66c:	00 00       	nop
     66e:	00 02       	muls	r16, r16
     670:	0f 00       	.word	0x000f	; ????
     672:	00 00       	nop
     674:	00 09       	sbc	r16, r0
     676:	0f 05       	cpc	r16, r15
     678:	00 00       	nop
     67a:	00 09       	sbc	r16, r0
     67c:	0d 0a       	sbc	r0, r29
     67e:	00 00       	nop
     680:	00 3c       	cpi	r16, 0xC0	; 192
     682:	3c 3c       	cpi	r19, 0xCC	; 204
     684:	3c 00       	.word	0x003c	; ????
     686:	00 00       	nop
     688:	00 00       	nop
	...

0000068c <Logo>:
	...
     758:	02 02 02 06 06 0e 0e 0e 1e 1e 1e 3e fe fe fe fe     ...........>....
     768:	fc fc fc fc fc fc fc fc fc fc f8 f8 f8 f0 00 00     ................
	...
     7b8:	00 00 00 80 c0 e0 e0 e0 e0 e0 c0 80 00 00 80 c0     ................
     7c8:	c0 e0 e0 e0 e0 c0 c0 c0 c0 c0 c0 80 80 80 00 00     ................
     7d8:	02 07 0f 1f 3f 3f 7f 7f fe fe fc f8 f0 e1 c1 83     ....??..........
     7e8:	83 03 03 03 07 07 07 03 03 03 03 01 01 00 00 00     ................
	...
     81c:	00 00 00 80 80 80 c0 c0 c0 c0 c0 c0 c0 c0 e0 e0     ................
     82c:	e0 c0 c0 c0 c0 c0 c0 c0 80 80 80 00 00 00 00 07     ................
     83c:	1f ff ff ff ff ff ff ff ff fc 80 01 01 03 03 03     ................
     84c:	03 07 07 07 07 07 8f cf ef ff ff ff ff fe 7e 7c     ..............~|
     85c:	3c 00 00 00 00 00 01 01 01 03 03 83 83 87 87 87     <...............
     86c:	46 46 46 4c 4c 4c 48 48 48 48 48 40 40 80 80 80     FFFLLLHHHHH@@...
     87c:	80 00 00 00 00 00 00 00 00 00 00 00 00 00 00 00     ................
     88c:	00 00 00 00 00 00 00 80 c0 e0 f0 f8 fc fc fe fe     ................
     89c:	ff ff ff ff ff ff ff ff ff ff ff ff ff ff ff ff     ................
     8ac:	ff ff ff ff ff ff ff ff ff ff ff ff ff fe fc f8     ................
     8bc:	f0 c0 03 0f 3f 7f ff ff ff ff ff c0 00 00 00 40     ....?..........@
     8cc:	60 30 38 1c 1e 0f 0f 07 07 03 03 01 01 00 00 80     `08.............
     8dc:	e0 60 30 18 0c 0c 06 02 03 01 01 01 00 00 00 00     .`0.............
	...
     8fc:	01 01 03 02 06 0c 38 f0 c0 00 00 00 00 00 00 00     ......8.........
     90c:	00 00 00 00 00 00 3e ff ff ff ff ff ff ff ff ff     ......>.........
     91c:	ff ff ff ff ff ff ff ff ff ff ff ff ff ff ff ff     ................
     92c:	ff ff ff ff ff ff ff ff ff ff ff ff ff ff 7f 3f     ...............?
     93c:	0f 03 00 00 00 00 03 0f 1f 7f ff ff 80 00 00 00     ................
	...
     958:	00 18 ff ff 81 00 00 00 00 00 00 00 00 00 00 00     ................
	...
     97c:	00 00 00 80 c0 70 3c 1f 07 00 00 00 00 00 00 00     .....p<.........
	...
     994:	01 03 03 07 0f 0f 0f 1f 1f 1f 1f 3f 3f 3f 3f 3f     ...........?????
     9a4:	3f 3f 3f 3f 3f 3f 3f 1f 1f 1f 1f 0f 0f 0f 07 07     ???????.........
     9b4:	07 03 03 01 00 00 00 00 00 00 00 00 00 00 00 00     ................
     9c4:	00 00 01 03 0f 00 00 00 00 00 00 00 00 00 00 00     ................
     9d4:	00 00 00 00 00 00 00 01 03 07 06 0c 08 18 10 10     ................
     9e4:	30 20 20 20 20 20 20 20 20 20 20 20 20 20 20 20     0               
     9f4:	10 10 10 18 08 08 0c 04 06 03 03 01 00 00 00 00     ................
	...

00000a8c <__c.2158>:
     a8c:	44 4d 4d 2d 50 72 6f 6a 65 6b 74 20 4e 72 2e 34     DMM-Projekt Nr.4
     a9c:	20 0d 0a 00                                          ...

00000aa0 <__c.2160>:
     aa0:	47 65 73 63 68 77 69 6e 64 69 67 6b 65 69 74 73     Geschwindigkeits
     ab0:	61 62 68 61 65 6e 67 2e 0d 0a 00                    abhaeng....

00000abb <__c.2162>:
     abb:	46 61 68 72 77 69 64 65 72 73 74 61 6e 64 0d 0a     Fahrwiderstand..
	...

00000acc <__c.2164>:
     acc:	54 65 69 6c 6e 65 68 6d 65 72 3a 0d 0a 00           Teilnehmer:...

00000ada <__c.2166>:
     ada:	4e 69 6b 6c 61 73 20 4b 75 68 72 6d 65 79 65 72     Niklas Kuhrmeyer
     aea:	0d 0a 00                                            ...

00000aed <__c.2168>:
     aed:	50 68 69 6c 69 70 70 20 4c 65 69 66 65 72 0d 0a     Philipp Leifer..
	...

00000afe <__c.2183>:
     afe:	4c 6f 67 67 65 72 00                                Logger.

00000b05 <__c.2185>:
     b05:	4b 75 72 76 65 00                                   Kurve.

00000b0b <__c.2187>:
     b0b:	4d 61 73 73 65 00                                   Masse.

00000b11 <__c.2192>:
     b11:	4c 6f 67 67 65 72 00                                Logger.

00000b18 <__c.2194>:
     b18:	4b 75 72 76 65 00                                   Kurve.

00000b1e <__c.2196>:
     b1e:	4d 61 73 73 65 00                                   Masse.

00000b24 <__c.2198>:
     b24:	76 00                                               v.

00000b26 <__c.2200>:
     b26:	50 00                                               P.

00000b28 <__c.2205>:
     b28:	4c 6f 67 67 65 72 00                                Logger.

00000b2f <__c.2207>:
     b2f:	4b 75 72 76 65 00                                   Kurve.

00000b35 <__c.2209>:
     b35:	4d 61 73 73 65 00                                   Masse.

00000b3b <__c.2211>:
     b3b:	69 6e 20 6b 67 00                                   in kg.

00000b41 <__c.2078>:
     b41:	47 65 73 63 68 77 69 6e 64 69 67 6b 65 69 74 3a     Geschwindigkeit:
	...

00000b52 <__c.2080>:
     b52:	20 20 20 00                                            .

00000b56 <__c.2082>:
     b56:	6b 6d 2f 68 00                                      km/h.

00000b5b <__c.2084>:
     b5b:	4c 65 69 73 74 75 6e 67 3a 00                       Leistung:.

00000b65 <__c.2086>:
     b65:	57 00 00                                            W..

00000b68 <__ctors_end>:
     b68:	11 24       	eor	r1, r1
     b6a:	1f be       	out	0x3f, r1	; 63
     b6c:	cf ef       	ldi	r28, 0xFF	; 255
     b6e:	d0 e4       	ldi	r29, 0x40	; 64
     b70:	de bf       	out	0x3e, r29	; 62
     b72:	cd bf       	out	0x3d, r28	; 61

00000b74 <__do_copy_data>:
     b74:	11 e0       	ldi	r17, 0x01	; 1
     b76:	a0 e0       	ldi	r26, 0x00	; 0
     b78:	b1 e0       	ldi	r27, 0x01	; 1
     b7a:	e2 e2       	ldi	r30, 0x22	; 34
     b7c:	f3 e3       	ldi	r31, 0x33	; 51
     b7e:	00 e0       	ldi	r16, 0x00	; 0
     b80:	0b bf       	out	0x3b, r16	; 59
     b82:	02 c0       	rjmp	.+4      	; 0xb88 <__do_copy_data+0x14>
     b84:	07 90       	elpm	r0, Z+
     b86:	0d 92       	st	X+, r0
     b88:	a0 31       	cpi	r26, 0x10	; 16
     b8a:	b1 07       	cpc	r27, r17
     b8c:	d9 f7       	brne	.-10     	; 0xb84 <__do_copy_data+0x10>

00000b8e <__do_clear_bss>:
     b8e:	29 e0       	ldi	r18, 0x09	; 9
     b90:	a0 e1       	ldi	r26, 0x10	; 16
     b92:	b1 e0       	ldi	r27, 0x01	; 1
     b94:	01 c0       	rjmp	.+2      	; 0xb98 <.do_clear_bss_start>

00000b96 <.do_clear_bss_loop>:
     b96:	1d 92       	st	X+, r1

00000b98 <.do_clear_bss_start>:
     b98:	aa 34       	cpi	r26, 0x4A	; 74
     b9a:	b2 07       	cpc	r27, r18
     b9c:	e1 f7       	brne	.-8      	; 0xb96 <.do_clear_bss_loop>
     b9e:	0e 94 df 0f 	call	0x1fbe	; 0x1fbe <main>
     ba2:	0c 94 8f 19 	jmp	0x331e	; 0x331e <_exit>

00000ba6 <__bad_interrupt>:
     ba6:	2c ca       	rjmp	.-2984   	; 0x0 <__vectors>

00000ba8 <counting>:

#include "counting.h"


void counting(volatile uint8_t *n)
{
     ba8:	cf 93       	push	r28
     baa:	df 93       	push	r29
     bac:	00 d0       	rcall	.+0      	; 0xbae <counting+0x6>
     bae:	cd b7       	in	r28, 0x3d	; 61
     bb0:	de b7       	in	r29, 0x3e	; 62
     bb2:	9a 83       	std	Y+2, r25	; 0x02
     bb4:	89 83       	std	Y+1, r24	; 0x01
	static uint8_t i = 0, b = 0;
	
	if ((i < 30) && (b == 0))
     bb6:	80 91 10 01 	lds	r24, 0x0110	; 0x800110 <__data_end>
     bba:	8e 31       	cpi	r24, 0x1E	; 30
     bbc:	88 f4       	brcc	.+34     	; 0xbe0 <counting+0x38>
     bbe:	80 91 11 01 	lds	r24, 0x0111	; 0x800111 <b.1892>
     bc2:	88 23       	and	r24, r24
     bc4:	69 f4       	brne	.+26     	; 0xbe0 <counting+0x38>
	{
		i++;
     bc6:	80 91 10 01 	lds	r24, 0x0110	; 0x800110 <__data_end>
     bca:	8f 5f       	subi	r24, 0xFF	; 255
     bcc:	80 93 10 01 	sts	0x0110, r24	; 0x800110 <__data_end>
		
		if (i == 30)
     bd0:	80 91 10 01 	lds	r24, 0x0110	; 0x800110 <__data_end>
     bd4:	8e 31       	cpi	r24, 0x1E	; 30
     bd6:	b9 f4       	brne	.+46     	; 0xc06 <counting+0x5e>
		{
			b = 1;
     bd8:	81 e0       	ldi	r24, 0x01	; 1
     bda:	80 93 11 01 	sts	0x0111, r24	; 0x800111 <b.1892>
	
	if ((i < 30) && (b == 0))
	{
		i++;
		
		if (i == 30)
     bde:	13 c0       	rjmp	.+38     	; 0xc06 <counting+0x5e>
		{
			b = 1;
		}
	}
	
	else if ((i > 0) && (b == 1))
     be0:	80 91 10 01 	lds	r24, 0x0110	; 0x800110 <__data_end>
     be4:	88 23       	and	r24, r24
     be6:	79 f0       	breq	.+30     	; 0xc06 <counting+0x5e>
     be8:	80 91 11 01 	lds	r24, 0x0111	; 0x800111 <b.1892>
     bec:	81 30       	cpi	r24, 0x01	; 1
     bee:	59 f4       	brne	.+22     	; 0xc06 <counting+0x5e>
	{
		i--;
     bf0:	80 91 10 01 	lds	r24, 0x0110	; 0x800110 <__data_end>
     bf4:	81 50       	subi	r24, 0x01	; 1
     bf6:	80 93 10 01 	sts	0x0110, r24	; 0x800110 <__data_end>
		
		if (i == 0)
     bfa:	80 91 10 01 	lds	r24, 0x0110	; 0x800110 <__data_end>
     bfe:	88 23       	and	r24, r24
     c00:	11 f4       	brne	.+4      	; 0xc06 <counting+0x5e>
		{
			b = 0;
     c02:	10 92 11 01 	sts	0x0111, r1	; 0x800111 <b.1892>
		}
	}
	
	*n = i;
     c06:	20 91 10 01 	lds	r18, 0x0110	; 0x800110 <__data_end>
     c0a:	89 81       	ldd	r24, Y+1	; 0x01
     c0c:	9a 81       	ldd	r25, Y+2	; 0x02
     c0e:	fc 01       	movw	r30, r24
     c10:	20 83       	st	Z, r18
	
     c12:	00 00       	nop
     c14:	0f 90       	pop	r0
     c16:	0f 90       	pop	r0
     c18:	df 91       	pop	r29
     c1a:	cf 91       	pop	r28
     c1c:	08 95       	ret

00000c1e <dataflash_init>:
  DATAFLASH_Chip_Unselect;
}

void
dataflash_init (void)
{
     c1e:	cf 93       	push	r28
     c20:	df 93       	push	r29
     c22:	cd b7       	in	r28, 0x3d	; 61
     c24:	de b7       	in	r29, 0x3e	; 62
  // AT45DB081 doesn't actually need an intialization,
  // only the ChipSelect should be configured as an output.
  DDRB |= (1 << PB4);
     c26:	84 e2       	ldi	r24, 0x24	; 36
     c28:	90 e0       	ldi	r25, 0x00	; 0
     c2a:	24 e2       	ldi	r18, 0x24	; 36
     c2c:	30 e0       	ldi	r19, 0x00	; 0
     c2e:	f9 01       	movw	r30, r18
     c30:	20 81       	ld	r18, Z
     c32:	20 61       	ori	r18, 0x10	; 16
     c34:	fc 01       	movw	r30, r24
     c36:	20 83       	st	Z, r18
  DATAFLASH_Chip_Unselect;
     c38:	85 e2       	ldi	r24, 0x25	; 37
     c3a:	90 e0       	ldi	r25, 0x00	; 0
     c3c:	25 e2       	ldi	r18, 0x25	; 37
     c3e:	30 e0       	ldi	r19, 0x00	; 0
     c40:	f9 01       	movw	r30, r18
     c42:	20 81       	ld	r18, Z
     c44:	20 61       	ori	r18, 0x10	; 16
     c46:	fc 01       	movw	r30, r24
     c48:	20 83       	st	Z, r18
  SPI_MasterInit();
     c4a:	0e 94 37 0e 	call	0x1c6e	; 0x1c6e <SPI_MasterInit>
}
     c4e:	00 00       	nop
     c50:	df 91       	pop	r29
     c52:	cf 91       	pop	r28
     c54:	08 95       	ret

00000c56 <JoySelect>:

#include "Joystick.h"


void JoySelect(volatile uint8_t *selx, volatile uint8_t *sely, volatile uint8_t *push, volatile uint8_t *mass_first, volatile uint8_t *mass_second, volatile uint8_t *mass_third)
{	
     c56:	ef 92       	push	r14
     c58:	ff 92       	push	r15
     c5a:	0f 93       	push	r16
     c5c:	1f 93       	push	r17
     c5e:	cf 93       	push	r28
     c60:	df 93       	push	r29
     c62:	cd b7       	in	r28, 0x3d	; 61
     c64:	de b7       	in	r29, 0x3e	; 62
     c66:	6e 97       	sbiw	r28, 0x1e	; 30
     c68:	0f b6       	in	r0, 0x3f	; 63
     c6a:	f8 94       	cli
     c6c:	de bf       	out	0x3e, r29	; 62
     c6e:	0f be       	out	0x3f, r0	; 63
     c70:	cd bf       	out	0x3d, r28	; 61
     c72:	9c 8b       	std	Y+20, r25	; 0x14
     c74:	8b 8b       	std	Y+19, r24	; 0x13
     c76:	7e 8b       	std	Y+22, r23	; 0x16
     c78:	6d 8b       	std	Y+21, r22	; 0x15
     c7a:	58 8f       	std	Y+24, r21	; 0x18
     c7c:	4f 8b       	std	Y+23, r20	; 0x17
     c7e:	3a 8f       	std	Y+26, r19	; 0x1a
     c80:	29 8f       	std	Y+25, r18	; 0x19
     c82:	1c 8f       	std	Y+28, r17	; 0x1c
     c84:	0b 8f       	std	Y+27, r16	; 0x1b
     c86:	fe 8e       	std	Y+30, r15	; 0x1e
     c88:	ed 8e       	std	Y+29, r14	; 0x1d
	const uint8_t leftBound  =  2;
     c8a:	82 e0       	ldi	r24, 0x02	; 2
     c8c:	89 83       	std	Y+1, r24	; 0x01
	const uint8_t rightBound = 12;
     c8e:	8c e0       	ldi	r24, 0x0C	; 12
     c90:	8a 83       	std	Y+2, r24	; 0x02
	const uint8_t highBound = 9;
     c92:	89 e0       	ldi	r24, 0x09	; 9
     c94:	8b 83       	std	Y+3, r24	; 0x03
	const uint8_t lowBound = 0;
     c96:	1c 82       	std	Y+4, r1	; 0x04
	static uint8_t mass_f = 0;
	static uint8_t mass_s = 0;
	static uint8_t mass_t = 0;

	 //Push 
	if ((PINA & 0x08) == 0 && select_flag == 0)
     c98:	80 e2       	ldi	r24, 0x20	; 32
     c9a:	90 e0       	ldi	r25, 0x00	; 0
     c9c:	fc 01       	movw	r30, r24
     c9e:	80 81       	ld	r24, Z
     ca0:	88 2f       	mov	r24, r24
     ca2:	90 e0       	ldi	r25, 0x00	; 0
     ca4:	88 70       	andi	r24, 0x08	; 8
     ca6:	99 27       	eor	r25, r25
     ca8:	89 2b       	or	r24, r25
     caa:	c1 f4       	brne	.+48     	; 0xcdc <JoySelect+0x86>
     cac:	80 91 12 01 	lds	r24, 0x0112	; 0x800112 <select_flag.1908>
     cb0:	88 23       	and	r24, r24
     cb2:	a1 f4       	brne	.+40     	; 0xcdc <JoySelect+0x86>
	{
		select_flag = 1;
     cb4:	81 e0       	ldi	r24, 0x01	; 1
     cb6:	80 93 12 01 	sts	0x0112, r24	; 0x800112 <select_flag.1908>
		
		if (push_select > 9)
     cba:	80 91 00 01 	lds	r24, 0x0100	; 0x800100 <__data_start>
     cbe:	8a 30       	cpi	r24, 0x0A	; 10
     cc0:	30 f0       	brcs	.+12     	; 0xcce <JoySelect+0x78>
		{
			push_select = push_select - 1;
     cc2:	80 91 00 01 	lds	r24, 0x0100	; 0x800100 <__data_start>
     cc6:	81 50       	subi	r24, 0x01	; 1
     cc8:	80 93 00 01 	sts	0x0100, r24	; 0x800100 <__data_start>
     ccc:	07 c0       	rjmp	.+14     	; 0xcdc <JoySelect+0x86>
		}
		
		else if (push_select <= 9)
     cce:	80 91 00 01 	lds	r24, 0x0100	; 0x800100 <__data_start>
     cd2:	8a 30       	cpi	r24, 0x0A	; 10
     cd4:	18 f4       	brcc	.+6      	; 0xcdc <JoySelect+0x86>
		{
			push_select = 11;
     cd6:	8b e0       	ldi	r24, 0x0B	; 11
     cd8:	80 93 00 01 	sts	0x0100, r24	; 0x800100 <__data_start>
		}
	}

//x nach links	
	if ((PINA & 0x20)==0 && selectX>leftBound && select_flag == 0) //prüfe ob Bit 5 gesetzt ist und linker Anschlag nicht erreicht ist [PA5 (0b00100000)]
     cdc:	80 e2       	ldi	r24, 0x20	; 32
     cde:	90 e0       	ldi	r25, 0x00	; 0
     ce0:	fc 01       	movw	r30, r24
     ce2:	80 81       	ld	r24, Z
     ce4:	88 2f       	mov	r24, r24
     ce6:	90 e0       	ldi	r25, 0x00	; 0
     ce8:	80 72       	andi	r24, 0x20	; 32
     cea:	99 27       	eor	r25, r25
     cec:	89 2b       	or	r24, r25
     cee:	91 f4       	brne	.+36     	; 0xd14 <JoySelect+0xbe>
     cf0:	90 91 01 01 	lds	r25, 0x0101	; 0x800101 <selectX.1905>
     cf4:	89 81       	ldd	r24, Y+1	; 0x01
     cf6:	89 17       	cp	r24, r25
     cf8:	68 f4       	brcc	.+26     	; 0xd14 <JoySelect+0xbe>
     cfa:	80 91 12 01 	lds	r24, 0x0112	; 0x800112 <select_flag.1908>
     cfe:	88 23       	and	r24, r24
     d00:	49 f4       	brne	.+18     	; 0xd14 <JoySelect+0xbe>
	{		
		selectX = selectX - 5;
     d02:	80 91 01 01 	lds	r24, 0x0101	; 0x800101 <selectX.1905>
     d06:	85 50       	subi	r24, 0x05	; 5
     d08:	80 93 01 01 	sts	0x0101, r24	; 0x800101 <selectX.1905>
		select_flag = 1;											// unterbindet mehrfachwahl bei gedrücktem Taster
     d0c:	81 e0       	ldi	r24, 0x01	; 1
     d0e:	80 93 12 01 	sts	0x0112, r24	; 0x800112 <select_flag.1908>
     d12:	b9 c0       	rjmp	.+370    	; 0xe86 <JoySelect+0x230>
	}
	
	
	
	//x nach rechts
	else if ((PINA & 0x10) == 0 && selectX < rightBound && select_flag == 0) //rechts PA4 (0b00010000)
     d14:	80 e2       	ldi	r24, 0x20	; 32
     d16:	90 e0       	ldi	r25, 0x00	; 0
     d18:	fc 01       	movw	r30, r24
     d1a:	80 81       	ld	r24, Z
     d1c:	88 2f       	mov	r24, r24
     d1e:	90 e0       	ldi	r25, 0x00	; 0
     d20:	80 71       	andi	r24, 0x10	; 16
     d22:	99 27       	eor	r25, r25
     d24:	89 2b       	or	r24, r25
     d26:	91 f4       	brne	.+36     	; 0xd4c <JoySelect+0xf6>
     d28:	90 91 01 01 	lds	r25, 0x0101	; 0x800101 <selectX.1905>
     d2c:	8a 81       	ldd	r24, Y+2	; 0x02
     d2e:	98 17       	cp	r25, r24
     d30:	68 f4       	brcc	.+26     	; 0xd4c <JoySelect+0xf6>
     d32:	80 91 12 01 	lds	r24, 0x0112	; 0x800112 <select_flag.1908>
     d36:	88 23       	and	r24, r24
     d38:	49 f4       	brne	.+18     	; 0xd4c <JoySelect+0xf6>
	{		
		selectX = selectX + 5;		
     d3a:	80 91 01 01 	lds	r24, 0x0101	; 0x800101 <selectX.1905>
     d3e:	8b 5f       	subi	r24, 0xFB	; 251
     d40:	80 93 01 01 	sts	0x0101, r24	; 0x800101 <selectX.1905>
		select_flag = 1;
     d44:	81 e0       	ldi	r24, 0x01	; 1
     d46:	80 93 12 01 	sts	0x0112, r24	; 0x800112 <select_flag.1908>
     d4a:	9d c0       	rjmp	.+314    	; 0xe86 <JoySelect+0x230>
	}
	
	
	//y nach oben 
	else if ((PINA & 0x80)==0 && selectY < highBound && select_flag == 0) //oben
     d4c:	80 e2       	ldi	r24, 0x20	; 32
     d4e:	90 e0       	ldi	r25, 0x00	; 0
     d50:	fc 01       	movw	r30, r24
     d52:	80 81       	ld	r24, Z
     d54:	88 23       	and	r24, r24
     d56:	0c f4       	brge	.+2      	; 0xd5a <JoySelect+0x104>
     d58:	3d c0       	rjmp	.+122    	; 0xdd4 <JoySelect+0x17e>
     d5a:	90 91 02 01 	lds	r25, 0x0102	; 0x800102 <selectY.1906>
     d5e:	8b 81       	ldd	r24, Y+3	; 0x03
     d60:	98 17       	cp	r25, r24
     d62:	c0 f5       	brcc	.+112    	; 0xdd4 <JoySelect+0x17e>
     d64:	80 91 12 01 	lds	r24, 0x0112	; 0x800112 <select_flag.1908>
     d68:	88 23       	and	r24, r24
     d6a:	a1 f5       	brne	.+104    	; 0xdd4 <JoySelect+0x17e>
	{
		switch(push_select)					   //abhaenig davon wie oft push select gewaehlt wird mit dem Fall die zu aendernde Stelle ausgewaehlt und um 1 inkrementiert 
     d6c:	80 91 00 01 	lds	r24, 0x0100	; 0x800100 <__data_start>
     d70:	88 2f       	mov	r24, r24
     d72:	90 e0       	ldi	r25, 0x00	; 0
     d74:	8a 30       	cpi	r24, 0x0A	; 10
     d76:	91 05       	cpc	r25, r1
     d78:	81 f0       	breq	.+32     	; 0xd9a <JoySelect+0x144>
     d7a:	8b 30       	cpi	r24, 0x0B	; 11
     d7c:	91 05       	cpc	r25, r1
     d7e:	19 f0       	breq	.+6      	; 0xd86 <JoySelect+0x130>
     d80:	09 97       	sbiw	r24, 0x09	; 9
     d82:	a9 f0       	breq	.+42     	; 0xdae <JoySelect+0x158>
     d84:	23 c0       	rjmp	.+70     	; 0xdcc <JoySelect+0x176>
		{
			case 11:
			if (mass_f < 9)
     d86:	80 91 13 01 	lds	r24, 0x0113	; 0x800113 <mass_f.1909>
     d8a:	89 30       	cpi	r24, 0x09	; 9
     d8c:	d0 f4       	brcc	.+52     	; 0xdc2 <JoySelect+0x16c>
			{
				mass_f = mass_f + 1;					
     d8e:	80 91 13 01 	lds	r24, 0x0113	; 0x800113 <mass_f.1909>
     d92:	8f 5f       	subi	r24, 0xFF	; 255
     d94:	80 93 13 01 	sts	0x0113, r24	; 0x800113 <mass_f.1909>
			}			
			break;
     d98:	14 c0       	rjmp	.+40     	; 0xdc2 <JoySelect+0x16c>
			
			case 10:
			if (mass_s < 9)
     d9a:	80 91 14 01 	lds	r24, 0x0114	; 0x800114 <mass_s.1910>
     d9e:	89 30       	cpi	r24, 0x09	; 9
     da0:	90 f4       	brcc	.+36     	; 0xdc6 <JoySelect+0x170>
			{
				mass_s = mass_s + 1;
     da2:	80 91 14 01 	lds	r24, 0x0114	; 0x800114 <mass_s.1910>
     da6:	8f 5f       	subi	r24, 0xFF	; 255
     da8:	80 93 14 01 	sts	0x0114, r24	; 0x800114 <mass_s.1910>
			}			
			break;
     dac:	0c c0       	rjmp	.+24     	; 0xdc6 <JoySelect+0x170>
			
			case 9:
			if (mass_t < 9)
     dae:	80 91 15 01 	lds	r24, 0x0115	; 0x800115 <mass_t.1911>
     db2:	89 30       	cpi	r24, 0x09	; 9
     db4:	50 f4       	brcc	.+20     	; 0xdca <JoySelect+0x174>
			{
				mass_t = mass_t + 1;
     db6:	80 91 15 01 	lds	r24, 0x0115	; 0x800115 <mass_t.1911>
     dba:	8f 5f       	subi	r24, 0xFF	; 255
     dbc:	80 93 15 01 	sts	0x0115, r24	; 0x800115 <mass_t.1911>
			}			
			break;			
     dc0:	04 c0       	rjmp	.+8      	; 0xdca <JoySelect+0x174>
			case 11:
			if (mass_f < 9)
			{
				mass_f = mass_f + 1;					
			}			
			break;
     dc2:	00 00       	nop
     dc4:	03 c0       	rjmp	.+6      	; 0xdcc <JoySelect+0x176>
			case 10:
			if (mass_s < 9)
			{
				mass_s = mass_s + 1;
			}			
			break;
     dc6:	00 00       	nop
     dc8:	01 c0       	rjmp	.+2      	; 0xdcc <JoySelect+0x176>
			case 9:
			if (mass_t < 9)
			{
				mass_t = mass_t + 1;
			}			
			break;			
     dca:	00 00       	nop
		}
		select_flag = 1;
     dcc:	81 e0       	ldi	r24, 0x01	; 1
     dce:	80 93 12 01 	sts	0x0112, r24	; 0x800112 <select_flag.1908>
     dd2:	59 c0       	rjmp	.+178    	; 0xe86 <JoySelect+0x230>
	}
	
	
	//y nach unten 
	else if ((PINA & 0x40)==0 && selectY > lowBound && select_flag == 0)  //abhaenig davon wie oft push select gewaehlt wird mit dem Fall die zu aendernde Stelle ausgewaehlt und um 1 dekrementiert 
     dd4:	80 e2       	ldi	r24, 0x20	; 32
     dd6:	90 e0       	ldi	r25, 0x00	; 0
     dd8:	fc 01       	movw	r30, r24
     dda:	80 81       	ld	r24, Z
     ddc:	88 2f       	mov	r24, r24
     dde:	90 e0       	ldi	r25, 0x00	; 0
     de0:	80 74       	andi	r24, 0x40	; 64
     de2:	99 27       	eor	r25, r25
     de4:	89 2b       	or	r24, r25
     de6:	09 f0       	breq	.+2      	; 0xdea <JoySelect+0x194>
     de8:	3d c0       	rjmp	.+122    	; 0xe64 <JoySelect+0x20e>
     dea:	90 91 02 01 	lds	r25, 0x0102	; 0x800102 <selectY.1906>
     dee:	8c 81       	ldd	r24, Y+4	; 0x04
     df0:	89 17       	cp	r24, r25
     df2:	c0 f5       	brcc	.+112    	; 0xe64 <JoySelect+0x20e>
     df4:	80 91 12 01 	lds	r24, 0x0112	; 0x800112 <select_flag.1908>
     df8:	88 23       	and	r24, r24
     dfa:	a1 f5       	brne	.+104    	; 0xe64 <JoySelect+0x20e>
	{
		switch(push_select)
     dfc:	80 91 00 01 	lds	r24, 0x0100	; 0x800100 <__data_start>
     e00:	88 2f       	mov	r24, r24
     e02:	90 e0       	ldi	r25, 0x00	; 0
     e04:	8a 30       	cpi	r24, 0x0A	; 10
     e06:	91 05       	cpc	r25, r1
     e08:	81 f0       	breq	.+32     	; 0xe2a <JoySelect+0x1d4>
     e0a:	8b 30       	cpi	r24, 0x0B	; 11
     e0c:	91 05       	cpc	r25, r1
     e0e:	19 f0       	breq	.+6      	; 0xe16 <JoySelect+0x1c0>
     e10:	09 97       	sbiw	r24, 0x09	; 9
     e12:	a9 f0       	breq	.+42     	; 0xe3e <JoySelect+0x1e8>
     e14:	23 c0       	rjmp	.+70     	; 0xe5c <JoySelect+0x206>
		{
			case 11:
			if (mass_f > 0)
     e16:	80 91 13 01 	lds	r24, 0x0113	; 0x800113 <mass_f.1909>
     e1a:	88 23       	and	r24, r24
     e1c:	d1 f0       	breq	.+52     	; 0xe52 <JoySelect+0x1fc>
			{
				mass_f = mass_f - 1;
     e1e:	80 91 13 01 	lds	r24, 0x0113	; 0x800113 <mass_f.1909>
     e22:	81 50       	subi	r24, 0x01	; 1
     e24:	80 93 13 01 	sts	0x0113, r24	; 0x800113 <mass_f.1909>
			}			
			break;
     e28:	14 c0       	rjmp	.+40     	; 0xe52 <JoySelect+0x1fc>
			
			case 10:
			if (mass_s > 0)
     e2a:	80 91 14 01 	lds	r24, 0x0114	; 0x800114 <mass_s.1910>
     e2e:	88 23       	and	r24, r24
     e30:	91 f0       	breq	.+36     	; 0xe56 <JoySelect+0x200>
			{
				mass_s = mass_s - 1;
     e32:	80 91 14 01 	lds	r24, 0x0114	; 0x800114 <mass_s.1910>
     e36:	81 50       	subi	r24, 0x01	; 1
     e38:	80 93 14 01 	sts	0x0114, r24	; 0x800114 <mass_s.1910>
			}
			break;
     e3c:	0c c0       	rjmp	.+24     	; 0xe56 <JoySelect+0x200>
			
			case 9:
			if (mass_t > 0)
     e3e:	80 91 15 01 	lds	r24, 0x0115	; 0x800115 <mass_t.1911>
     e42:	88 23       	and	r24, r24
     e44:	51 f0       	breq	.+20     	; 0xe5a <JoySelect+0x204>
			{
				mass_t = mass_t - 1;
     e46:	80 91 15 01 	lds	r24, 0x0115	; 0x800115 <mass_t.1911>
     e4a:	81 50       	subi	r24, 0x01	; 1
     e4c:	80 93 15 01 	sts	0x0115, r24	; 0x800115 <mass_t.1911>
			}
			break;
     e50:	04 c0       	rjmp	.+8      	; 0xe5a <JoySelect+0x204>
			case 11:
			if (mass_f > 0)
			{
				mass_f = mass_f - 1;
			}			
			break;
     e52:	00 00       	nop
     e54:	03 c0       	rjmp	.+6      	; 0xe5c <JoySelect+0x206>
			case 10:
			if (mass_s > 0)
			{
				mass_s = mass_s - 1;
			}
			break;
     e56:	00 00       	nop
     e58:	01 c0       	rjmp	.+2      	; 0xe5c <JoySelect+0x206>
			case 9:
			if (mass_t > 0)
			{
				mass_t = mass_t - 1;
			}
			break;
     e5a:	00 00       	nop
		}
		select_flag = 1;
     e5c:	81 e0       	ldi	r24, 0x01	; 1
     e5e:	80 93 12 01 	sts	0x0112, r24	; 0x800112 <select_flag.1908>
     e62:	11 c0       	rjmp	.+34     	; 0xe86 <JoySelect+0x230>
	}
	
	
	
	
	else if ((PINA & 0xF8) == 0xF8 && select_flag == 1)				// Wenn Taster losgelassen, dann erneute Betätigung möglich
     e64:	80 e2       	ldi	r24, 0x20	; 32
     e66:	90 e0       	ldi	r25, 0x00	; 0
     e68:	fc 01       	movw	r30, r24
     e6a:	80 81       	ld	r24, Z
     e6c:	88 2f       	mov	r24, r24
     e6e:	90 e0       	ldi	r25, 0x00	; 0
     e70:	88 7f       	andi	r24, 0xF8	; 248
     e72:	99 27       	eor	r25, r25
     e74:	88 3f       	cpi	r24, 0xF8	; 248
     e76:	91 05       	cpc	r25, r1
     e78:	31 f4       	brne	.+12     	; 0xe86 <JoySelect+0x230>
     e7a:	80 91 12 01 	lds	r24, 0x0112	; 0x800112 <select_flag.1908>
     e7e:	81 30       	cpi	r24, 0x01	; 1
     e80:	11 f4       	brne	.+4      	; 0xe86 <JoySelect+0x230>
	{
		select_flag = 0;
     e82:	10 92 12 01 	sts	0x0112, r1	; 0x800112 <select_flag.1908>
     e86:	80 e0       	ldi	r24, 0x00	; 0
     e88:	90 e0       	ldi	r25, 0x00	; 0
     e8a:	a0 e2       	ldi	r26, 0x20	; 32
     e8c:	b1 e4       	ldi	r27, 0x41	; 65
     e8e:	8d 83       	std	Y+5, r24	; 0x05
     e90:	9e 83       	std	Y+6, r25	; 0x06
     e92:	af 83       	std	Y+7, r26	; 0x07
     e94:	b8 87       	std	Y+8, r27	; 0x08

	__builtin_avr_delay_cycles(__ticks_dc);

#else
	uint16_t __ticks;
	__tmp = ((F_CPU) / 4e3) * __ms;
     e96:	20 e0       	ldi	r18, 0x00	; 0
     e98:	30 e0       	ldi	r19, 0x00	; 0
     e9a:	4a e7       	ldi	r20, 0x7A	; 122
     e9c:	55 e4       	ldi	r21, 0x45	; 69
     e9e:	6d 81       	ldd	r22, Y+5	; 0x05
     ea0:	7e 81       	ldd	r23, Y+6	; 0x06
     ea2:	8f 81       	ldd	r24, Y+7	; 0x07
     ea4:	98 85       	ldd	r25, Y+8	; 0x08
     ea6:	0e 94 a5 18 	call	0x314a	; 0x314a <__mulsf3>
     eaa:	dc 01       	movw	r26, r24
     eac:	cb 01       	movw	r24, r22
     eae:	89 87       	std	Y+9, r24	; 0x09
     eb0:	9a 87       	std	Y+10, r25	; 0x0a
     eb2:	ab 87       	std	Y+11, r26	; 0x0b
     eb4:	bc 87       	std	Y+12, r27	; 0x0c
	if (__tmp < 1.0)
     eb6:	20 e0       	ldi	r18, 0x00	; 0
     eb8:	30 e0       	ldi	r19, 0x00	; 0
     eba:	40 e8       	ldi	r20, 0x80	; 128
     ebc:	5f e3       	ldi	r21, 0x3F	; 63
     ebe:	69 85       	ldd	r22, Y+9	; 0x09
     ec0:	7a 85       	ldd	r23, Y+10	; 0x0a
     ec2:	8b 85       	ldd	r24, Y+11	; 0x0b
     ec4:	9c 85       	ldd	r25, Y+12	; 0x0c
     ec6:	0e 94 52 17 	call	0x2ea4	; 0x2ea4 <__cmpsf2>
     eca:	88 23       	and	r24, r24
     ecc:	2c f4       	brge	.+10     	; 0xed8 <JoySelect+0x282>
		__ticks = 1;
     ece:	81 e0       	ldi	r24, 0x01	; 1
     ed0:	90 e0       	ldi	r25, 0x00	; 0
     ed2:	9e 87       	std	Y+14, r25	; 0x0e
     ed4:	8d 87       	std	Y+13, r24	; 0x0d
     ed6:	3f c0       	rjmp	.+126    	; 0xf56 <JoySelect+0x300>
	else if (__tmp > 65535)
     ed8:	20 e0       	ldi	r18, 0x00	; 0
     eda:	3f ef       	ldi	r19, 0xFF	; 255
     edc:	4f e7       	ldi	r20, 0x7F	; 127
     ede:	57 e4       	ldi	r21, 0x47	; 71
     ee0:	69 85       	ldd	r22, Y+9	; 0x09
     ee2:	7a 85       	ldd	r23, Y+10	; 0x0a
     ee4:	8b 85       	ldd	r24, Y+11	; 0x0b
     ee6:	9c 85       	ldd	r25, Y+12	; 0x0c
     ee8:	0e 94 a1 18 	call	0x3142	; 0x3142 <__gesf2>
     eec:	18 16       	cp	r1, r24
     eee:	4c f5       	brge	.+82     	; 0xf42 <JoySelect+0x2ec>
	{
		//	__ticks = requested delay in 1/10 ms
		__ticks = (uint16_t) (__ms * 10.0);
     ef0:	20 e0       	ldi	r18, 0x00	; 0
     ef2:	30 e0       	ldi	r19, 0x00	; 0
     ef4:	40 e2       	ldi	r20, 0x20	; 32
     ef6:	51 e4       	ldi	r21, 0x41	; 65
     ef8:	6d 81       	ldd	r22, Y+5	; 0x05
     efa:	7e 81       	ldd	r23, Y+6	; 0x06
     efc:	8f 81       	ldd	r24, Y+7	; 0x07
     efe:	98 85       	ldd	r25, Y+8	; 0x08
     f00:	0e 94 a5 18 	call	0x314a	; 0x314a <__mulsf3>
     f04:	dc 01       	movw	r26, r24
     f06:	cb 01       	movw	r24, r22
     f08:	bc 01       	movw	r22, r24
     f0a:	cd 01       	movw	r24, r26
     f0c:	0e 94 c3 17 	call	0x2f86	; 0x2f86 <__fixunssfsi>
     f10:	dc 01       	movw	r26, r24
     f12:	cb 01       	movw	r24, r22
     f14:	9e 87       	std	Y+14, r25	; 0x0e
     f16:	8d 87       	std	Y+13, r24	; 0x0d
     f18:	0f c0       	rjmp	.+30     	; 0xf38 <JoySelect+0x2e2>
     f1a:	80 e9       	ldi	r24, 0x90	; 144
     f1c:	91 e0       	ldi	r25, 0x01	; 1
     f1e:	98 8b       	std	Y+16, r25	; 0x10
     f20:	8f 87       	std	Y+15, r24	; 0x0f
    milliseconds can be achieved.
 */
void
_delay_loop_2(uint16_t __count)
{
	__asm__ volatile (
     f22:	8f 85       	ldd	r24, Y+15	; 0x0f
     f24:	98 89       	ldd	r25, Y+16	; 0x10
     f26:	01 97       	sbiw	r24, 0x01	; 1
     f28:	f1 f7       	brne	.-4      	; 0xf26 <JoySelect+0x2d0>
     f2a:	98 8b       	std	Y+16, r25	; 0x10
     f2c:	8f 87       	std	Y+15, r24	; 0x0f
		while(__ticks)
		{
			// wait 1/10 ms
			_delay_loop_2(((F_CPU) / 4e3) / 10);
			__ticks --;
     f2e:	8d 85       	ldd	r24, Y+13	; 0x0d
     f30:	9e 85       	ldd	r25, Y+14	; 0x0e
     f32:	01 97       	sbiw	r24, 0x01	; 1
     f34:	9e 87       	std	Y+14, r25	; 0x0e
     f36:	8d 87       	std	Y+13, r24	; 0x0d
		__ticks = 1;
	else if (__tmp > 65535)
	{
		//	__ticks = requested delay in 1/10 ms
		__ticks = (uint16_t) (__ms * 10.0);
		while(__ticks)
     f38:	8d 85       	ldd	r24, Y+13	; 0x0d
     f3a:	9e 85       	ldd	r25, Y+14	; 0x0e
     f3c:	89 2b       	or	r24, r25
     f3e:	69 f7       	brne	.-38     	; 0xf1a <JoySelect+0x2c4>
     f40:	14 c0       	rjmp	.+40     	; 0xf6a <JoySelect+0x314>
			__ticks --;
		}
		return;
	}
	else
		__ticks = (uint16_t)__tmp;
     f42:	69 85       	ldd	r22, Y+9	; 0x09
     f44:	7a 85       	ldd	r23, Y+10	; 0x0a
     f46:	8b 85       	ldd	r24, Y+11	; 0x0b
     f48:	9c 85       	ldd	r25, Y+12	; 0x0c
     f4a:	0e 94 c3 17 	call	0x2f86	; 0x2f86 <__fixunssfsi>
     f4e:	dc 01       	movw	r26, r24
     f50:	cb 01       	movw	r24, r22
     f52:	9e 87       	std	Y+14, r25	; 0x0e
     f54:	8d 87       	std	Y+13, r24	; 0x0d
     f56:	8d 85       	ldd	r24, Y+13	; 0x0d
     f58:	9e 85       	ldd	r25, Y+14	; 0x0e
     f5a:	9a 8b       	std	Y+18, r25	; 0x12
     f5c:	89 8b       	std	Y+17, r24	; 0x11
     f5e:	89 89       	ldd	r24, Y+17	; 0x11
     f60:	9a 89       	ldd	r25, Y+18	; 0x12
     f62:	01 97       	sbiw	r24, 0x01	; 1
     f64:	f1 f7       	brne	.-4      	; 0xf62 <JoySelect+0x30c>
     f66:	9a 8b       	std	Y+18, r25	; 0x12
     f68:	89 8b       	std	Y+17, r24	; 0x11
	_delay_ms(10);																			// delay um das Prellen der Taster abzuwarten
	
	
	
	//Rueckschreiben der Daten auf uebergebene Adressen 
	*selx = selectX;
     f6a:	20 91 01 01 	lds	r18, 0x0101	; 0x800101 <selectX.1905>
     f6e:	8b 89       	ldd	r24, Y+19	; 0x13
     f70:	9c 89       	ldd	r25, Y+20	; 0x14
     f72:	fc 01       	movw	r30, r24
     f74:	20 83       	st	Z, r18
	*sely = selectY;
     f76:	20 91 02 01 	lds	r18, 0x0102	; 0x800102 <selectY.1906>
     f7a:	8d 89       	ldd	r24, Y+21	; 0x15
     f7c:	9e 89       	ldd	r25, Y+22	; 0x16
     f7e:	fc 01       	movw	r30, r24
     f80:	20 83       	st	Z, r18
	*push = push_select;
     f82:	20 91 00 01 	lds	r18, 0x0100	; 0x800100 <__data_start>
     f86:	8f 89       	ldd	r24, Y+23	; 0x17
     f88:	98 8d       	ldd	r25, Y+24	; 0x18
     f8a:	fc 01       	movw	r30, r24
     f8c:	20 83       	st	Z, r18
	
	*mass_first = mass_f;
     f8e:	20 91 13 01 	lds	r18, 0x0113	; 0x800113 <mass_f.1909>
     f92:	89 8d       	ldd	r24, Y+25	; 0x19
     f94:	9a 8d       	ldd	r25, Y+26	; 0x1a
     f96:	fc 01       	movw	r30, r24
     f98:	20 83       	st	Z, r18
	*mass_second = mass_s;
     f9a:	20 91 14 01 	lds	r18, 0x0114	; 0x800114 <mass_s.1910>
     f9e:	8b 8d       	ldd	r24, Y+27	; 0x1b
     fa0:	9c 8d       	ldd	r25, Y+28	; 0x1c
     fa2:	fc 01       	movw	r30, r24
     fa4:	20 83       	st	Z, r18
	*mass_third = mass_t;
     fa6:	20 91 15 01 	lds	r18, 0x0115	; 0x800115 <mass_t.1911>
     faa:	8d 8d       	ldd	r24, Y+29	; 0x1d
     fac:	9e 8d       	ldd	r25, Y+30	; 0x1e
     fae:	fc 01       	movw	r30, r24
     fb0:	20 83       	st	Z, r18
     fb2:	00 00       	nop
     fb4:	6e 96       	adiw	r28, 0x1e	; 30
     fb6:	0f b6       	in	r0, 0x3f	; 63
     fb8:	f8 94       	cli
     fba:	de bf       	out	0x3e, r29	; 62
     fbc:	0f be       	out	0x3f, r0	; 63
     fbe:	cd bf       	out	0x3d, r28	; 61
     fc0:	df 91       	pop	r29
     fc2:	cf 91       	pop	r28
     fc4:	1f 91       	pop	r17
     fc6:	0f 91       	pop	r16
     fc8:	ff 90       	pop	r15
     fca:	ef 90       	pop	r14
     fcc:	08 95       	ret

00000fce <font_invert>:
  
  for (x = 0; x < 128; x++)
    lcd_framebuffer[line][x] = 0x00;
  
  lcd_frameupdate |= (1 << line);
}
     fce:	cf 93       	push	r28
     fd0:	df 93       	push	r29
     fd2:	1f 92       	push	r1
     fd4:	cd b7       	in	r28, 0x3d	; 61
     fd6:	de b7       	in	r29, 0x3e	; 62
     fd8:	89 83       	std	Y+1, r24	; 0x01
     fda:	89 81       	ldd	r24, Y+1	; 0x01
     fdc:	80 93 19 01 	sts	0x0119, r24	; 0x800119 <invert>
     fe0:	00 00       	nop
     fe2:	0f 90       	pop	r0
     fe4:	df 91       	pop	r29
     fe6:	cf 91       	pop	r28
     fe8:	08 95       	ret

00000fea <LCD_Send>:
     fea:	cf 93       	push	r28
     fec:	df 93       	push	r29
     fee:	1f 92       	push	r1
     ff0:	cd b7       	in	r28, 0x3d	; 61
     ff2:	de b7       	in	r29, 0x3e	; 62
     ff4:	89 83       	std	Y+1, r24	; 0x01
     ff6:	89 81       	ldd	r24, Y+1	; 0x01
     ff8:	63 d6       	rcall	.+3270   	; 0x1cc0 <SPI_MasterTransfer>
     ffa:	00 00       	nop
     ffc:	0f 90       	pop	r0
     ffe:	df 91       	pop	r29
    1000:	cf 91       	pop	r28
    1002:	08 95       	ret

00001004 <LCD_Init>:
    1004:	cf 93       	push	r28
    1006:	df 93       	push	r29
    1008:	1f 92       	push	r1
    100a:	cd b7       	in	r28, 0x3d	; 61
    100c:	de b7       	in	r29, 0x3e	; 62
    100e:	2f d6       	rcall	.+3166   	; 0x1c6e <SPI_MasterInit>
    1010:	87 e2       	ldi	r24, 0x27	; 39
    1012:	90 e0       	ldi	r25, 0x00	; 0
    1014:	27 e2       	ldi	r18, 0x27	; 39
    1016:	30 e0       	ldi	r19, 0x00	; 0
    1018:	f9 01       	movw	r30, r18
    101a:	20 81       	ld	r18, Z
    101c:	20 6c       	ori	r18, 0xC0	; 192
    101e:	fc 01       	movw	r30, r24
    1020:	20 83       	st	Z, r18
    1022:	8f e5       	ldi	r24, 0x5F	; 95
    1024:	90 e0       	ldi	r25, 0x00	; 0
    1026:	fc 01       	movw	r30, r24
    1028:	80 81       	ld	r24, Z
    102a:	89 83       	std	Y+1, r24	; 0x01
    102c:	f8 94       	cli
    102e:	88 e2       	ldi	r24, 0x28	; 40
    1030:	90 e0       	ldi	r25, 0x00	; 0
    1032:	28 e2       	ldi	r18, 0x28	; 40
    1034:	30 e0       	ldi	r19, 0x00	; 0
    1036:	f9 01       	movw	r30, r18
    1038:	20 81       	ld	r18, Z
    103a:	2f 77       	andi	r18, 0x7F	; 127
    103c:	fc 01       	movw	r30, r24
    103e:	20 83       	st	Z, r18
    1040:	88 e2       	ldi	r24, 0x28	; 40
    1042:	90 e0       	ldi	r25, 0x00	; 0
    1044:	28 e2       	ldi	r18, 0x28	; 40
    1046:	30 e0       	ldi	r19, 0x00	; 0
    1048:	f9 01       	movw	r30, r18
    104a:	20 81       	ld	r18, Z
    104c:	2f 7b       	andi	r18, 0xBF	; 191
    104e:	fc 01       	movw	r30, r24
    1050:	20 83       	st	Z, r18
    1052:	82 ee       	ldi	r24, 0xE2	; 226
    1054:	ca df       	rcall	.-108    	; 0xfea <LCD_Send>
    1056:	83 ea       	ldi	r24, 0xA3	; 163
    1058:	c8 df       	rcall	.-112    	; 0xfea <LCD_Send>
    105a:	81 e8       	ldi	r24, 0x81	; 129
    105c:	c6 df       	rcall	.-116    	; 0xfea <LCD_Send>
    105e:	88 e0       	ldi	r24, 0x08	; 8
    1060:	c4 df       	rcall	.-120    	; 0xfea <LCD_Send>
    1062:	80 ea       	ldi	r24, 0xA0	; 160
    1064:	c2 df       	rcall	.-124    	; 0xfea <LCD_Send>
    1066:	88 ec       	ldi	r24, 0xC8	; 200
    1068:	c0 df       	rcall	.-128    	; 0xfea <LCD_Send>
    106a:	85 e2       	ldi	r24, 0x25	; 37
    106c:	be df       	rcall	.-132    	; 0xfea <LCD_Send>
    106e:	8f e2       	ldi	r24, 0x2F	; 47
    1070:	bc df       	rcall	.-136    	; 0xfea <LCD_Send>
    1072:	8f ea       	ldi	r24, 0xAF	; 175
    1074:	ba df       	rcall	.-140    	; 0xfea <LCD_Send>
    1076:	88 e2       	ldi	r24, 0x28	; 40
    1078:	90 e0       	ldi	r25, 0x00	; 0
    107a:	28 e2       	ldi	r18, 0x28	; 40
    107c:	30 e0       	ldi	r19, 0x00	; 0
    107e:	f9 01       	movw	r30, r18
    1080:	20 81       	ld	r18, Z
    1082:	20 64       	ori	r18, 0x40	; 64
    1084:	fc 01       	movw	r30, r24
    1086:	20 83       	st	Z, r18
    1088:	88 e2       	ldi	r24, 0x28	; 40
    108a:	90 e0       	ldi	r25, 0x00	; 0
    108c:	28 e2       	ldi	r18, 0x28	; 40
    108e:	30 e0       	ldi	r19, 0x00	; 0
    1090:	f9 01       	movw	r30, r18
    1092:	20 81       	ld	r18, Z
    1094:	20 68       	ori	r18, 0x80	; 128
    1096:	fc 01       	movw	r30, r24
    1098:	20 83       	st	Z, r18
    109a:	0d d0       	rcall	.+26     	; 0x10b6 <LCD_Clear>
    109c:	8f e5       	ldi	r24, 0x5F	; 95
    109e:	90 e0       	ldi	r25, 0x00	; 0
    10a0:	29 81       	ldd	r18, Y+1	; 0x01
    10a2:	fc 01       	movw	r30, r24
    10a4:	20 83       	st	Z, r18
    10a6:	23 d6       	rcall	.+3142   	; 0x1cee <TWI_Init>
    10a8:	7c d3       	rcall	.+1784   	; 0x17a2 <Backlight_Off>
    10aa:	b9 dd       	rcall	.-1166   	; 0xc1e <dataflash_init>
    10ac:	00 00       	nop
    10ae:	0f 90       	pop	r0
    10b0:	df 91       	pop	r29
    10b2:	cf 91       	pop	r28
    10b4:	08 95       	ret

000010b6 <LCD_Clear>:
    10b6:	cf 93       	push	r28
    10b8:	df 93       	push	r29
    10ba:	00 d0       	rcall	.+0      	; 0x10bc <LCD_Clear+0x6>
    10bc:	cd b7       	in	r28, 0x3d	; 61
    10be:	de b7       	in	r29, 0x3e	; 62
    10c0:	19 82       	std	Y+1, r1	; 0x01
    10c2:	1a 82       	std	Y+2, r1	; 0x02
    10c4:	1a 82       	std	Y+2, r1	; 0x02
    10c6:	1c c0       	rjmp	.+56     	; 0x1100 <LCD_Clear+0x4a>
    10c8:	19 82       	std	Y+1, r1	; 0x01
    10ca:	14 c0       	rjmp	.+40     	; 0x10f4 <LCD_Clear+0x3e>
    10cc:	8a 81       	ldd	r24, Y+2	; 0x02
    10ce:	28 2f       	mov	r18, r24
    10d0:	30 e0       	ldi	r19, 0x00	; 0
    10d2:	89 81       	ldd	r24, Y+1	; 0x01
    10d4:	88 2f       	mov	r24, r24
    10d6:	90 e0       	ldi	r25, 0x00	; 0
    10d8:	36 95       	lsr	r19
    10da:	32 2f       	mov	r19, r18
    10dc:	22 27       	eor	r18, r18
    10de:	37 95       	ror	r19
    10e0:	27 95       	ror	r18
    10e2:	82 0f       	add	r24, r18
    10e4:	93 1f       	adc	r25, r19
    10e6:	86 5b       	subi	r24, 0xB6	; 182
    10e8:	9a 4f       	sbci	r25, 0xFA	; 250
    10ea:	fc 01       	movw	r30, r24
    10ec:	10 82       	st	Z, r1
    10ee:	89 81       	ldd	r24, Y+1	; 0x01
    10f0:	8f 5f       	subi	r24, 0xFF	; 255
    10f2:	89 83       	std	Y+1, r24	; 0x01
    10f4:	89 81       	ldd	r24, Y+1	; 0x01
    10f6:	88 23       	and	r24, r24
    10f8:	4c f7       	brge	.-46     	; 0x10cc <LCD_Clear+0x16>
    10fa:	8a 81       	ldd	r24, Y+2	; 0x02
    10fc:	8f 5f       	subi	r24, 0xFF	; 255
    10fe:	8a 83       	std	Y+2, r24	; 0x02
    1100:	8a 81       	ldd	r24, Y+2	; 0x02
    1102:	88 30       	cpi	r24, 0x08	; 8
    1104:	08 f3       	brcs	.-62     	; 0x10c8 <LCD_Clear+0x12>
    1106:	8f ef       	ldi	r24, 0xFF	; 255
    1108:	80 93 16 01 	sts	0x0116, r24	; 0x800116 <lcd_frameupdate>
    110c:	06 d0       	rcall	.+12     	; 0x111a <LCD_Update>
    110e:	00 00       	nop
    1110:	0f 90       	pop	r0
    1112:	0f 90       	pop	r0
    1114:	df 91       	pop	r29
    1116:	cf 91       	pop	r28
    1118:	08 95       	ret

0000111a <LCD_Update>:
    111a:	cf 93       	push	r28
    111c:	df 93       	push	r29
    111e:	00 d0       	rcall	.+0      	; 0x1120 <LCD_Update+0x6>
    1120:	1f 92       	push	r1
    1122:	cd b7       	in	r28, 0x3d	; 61
    1124:	de b7       	in	r29, 0x3e	; 62
    1126:	87 e0       	ldi	r24, 0x07	; 7
    1128:	89 83       	std	Y+1, r24	; 0x01
    112a:	8f e5       	ldi	r24, 0x5F	; 95
    112c:	90 e0       	ldi	r25, 0x00	; 0
    112e:	fc 01       	movw	r30, r24
    1130:	80 81       	ld	r24, Z
    1132:	8b 83       	std	Y+3, r24	; 0x03
    1134:	f8 94       	cli
    1136:	80 91 16 01 	lds	r24, 0x0116	; 0x800116 <lcd_frameupdate>
    113a:	88 2f       	mov	r24, r24
    113c:	90 e0       	ldi	r25, 0x00	; 0
    113e:	29 81       	ldd	r18, Y+1	; 0x01
    1140:	02 2e       	mov	r0, r18
    1142:	00 0c       	add	r0, r0
    1144:	33 0b       	sbc	r19, r19
    1146:	02 c0       	rjmp	.+4      	; 0x114c <LCD_Update+0x32>
    1148:	95 95       	asr	r25
    114a:	87 95       	ror	r24
    114c:	2a 95       	dec	r18
    114e:	e2 f7       	brpl	.-8      	; 0x1148 <LCD_Update+0x2e>
    1150:	81 70       	andi	r24, 0x01	; 1
    1152:	99 27       	eor	r25, r25
    1154:	89 2b       	or	r24, r25
    1156:	09 f4       	brne	.+2      	; 0x115a <LCD_Update+0x40>
    1158:	46 c0       	rjmp	.+140    	; 0x11e6 <LCD_Update+0xcc>
    115a:	88 e2       	ldi	r24, 0x28	; 40
    115c:	90 e0       	ldi	r25, 0x00	; 0
    115e:	28 e2       	ldi	r18, 0x28	; 40
    1160:	30 e0       	ldi	r19, 0x00	; 0
    1162:	f9 01       	movw	r30, r18
    1164:	20 81       	ld	r18, Z
    1166:	2f 7b       	andi	r18, 0xBF	; 191
    1168:	fc 01       	movw	r30, r24
    116a:	20 83       	st	Z, r18
    116c:	88 e2       	ldi	r24, 0x28	; 40
    116e:	90 e0       	ldi	r25, 0x00	; 0
    1170:	28 e2       	ldi	r18, 0x28	; 40
    1172:	30 e0       	ldi	r19, 0x00	; 0
    1174:	f9 01       	movw	r30, r18
    1176:	20 81       	ld	r18, Z
    1178:	2f 77       	andi	r18, 0x7F	; 127
    117a:	fc 01       	movw	r30, r24
    117c:	20 83       	st	Z, r18
    117e:	89 81       	ldd	r24, Y+1	; 0x01
    1180:	80 6b       	ori	r24, 0xB0	; 176
    1182:	33 df       	rcall	.-410    	; 0xfea <LCD_Send>
    1184:	80 e1       	ldi	r24, 0x10	; 16
    1186:	31 df       	rcall	.-414    	; 0xfea <LCD_Send>
    1188:	80 e0       	ldi	r24, 0x00	; 0
    118a:	2f df       	rcall	.-418    	; 0xfea <LCD_Send>
    118c:	88 e2       	ldi	r24, 0x28	; 40
    118e:	90 e0       	ldi	r25, 0x00	; 0
    1190:	28 e2       	ldi	r18, 0x28	; 40
    1192:	30 e0       	ldi	r19, 0x00	; 0
    1194:	f9 01       	movw	r30, r18
    1196:	20 81       	ld	r18, Z
    1198:	20 68       	ori	r18, 0x80	; 128
    119a:	fc 01       	movw	r30, r24
    119c:	20 83       	st	Z, r18
    119e:	1a 82       	std	Y+2, r1	; 0x02
    11a0:	16 c0       	rjmp	.+44     	; 0x11ce <LCD_Update+0xb4>
    11a2:	89 81       	ldd	r24, Y+1	; 0x01
    11a4:	28 2f       	mov	r18, r24
    11a6:	88 0f       	add	r24, r24
    11a8:	33 0b       	sbc	r19, r19
    11aa:	8a 81       	ldd	r24, Y+2	; 0x02
    11ac:	88 2f       	mov	r24, r24
    11ae:	90 e0       	ldi	r25, 0x00	; 0
    11b0:	36 95       	lsr	r19
    11b2:	32 2f       	mov	r19, r18
    11b4:	22 27       	eor	r18, r18
    11b6:	37 95       	ror	r19
    11b8:	27 95       	ror	r18
    11ba:	82 0f       	add	r24, r18
    11bc:	93 1f       	adc	r25, r19
    11be:	86 5b       	subi	r24, 0xB6	; 182
    11c0:	9a 4f       	sbci	r25, 0xFA	; 250
    11c2:	fc 01       	movw	r30, r24
    11c4:	80 81       	ld	r24, Z
    11c6:	11 df       	rcall	.-478    	; 0xfea <LCD_Send>
    11c8:	8a 81       	ldd	r24, Y+2	; 0x02
    11ca:	8f 5f       	subi	r24, 0xFF	; 255
    11cc:	8a 83       	std	Y+2, r24	; 0x02
    11ce:	8a 81       	ldd	r24, Y+2	; 0x02
    11d0:	88 23       	and	r24, r24
    11d2:	3c f7       	brge	.-50     	; 0x11a2 <LCD_Update+0x88>
    11d4:	88 e2       	ldi	r24, 0x28	; 40
    11d6:	90 e0       	ldi	r25, 0x00	; 0
    11d8:	28 e2       	ldi	r18, 0x28	; 40
    11da:	30 e0       	ldi	r19, 0x00	; 0
    11dc:	f9 01       	movw	r30, r18
    11de:	20 81       	ld	r18, Z
    11e0:	20 64       	ori	r18, 0x40	; 64
    11e2:	fc 01       	movw	r30, r24
    11e4:	20 83       	st	Z, r18
    11e6:	89 81       	ldd	r24, Y+1	; 0x01
    11e8:	98 2f       	mov	r25, r24
    11ea:	91 50       	subi	r25, 0x01	; 1
    11ec:	99 83       	std	Y+1, r25	; 0x01
    11ee:	88 23       	and	r24, r24
    11f0:	09 f0       	breq	.+2      	; 0x11f4 <LCD_Update+0xda>
    11f2:	a1 cf       	rjmp	.-190    	; 0x1136 <LCD_Update+0x1c>
    11f4:	10 92 16 01 	sts	0x0116, r1	; 0x800116 <lcd_frameupdate>
    11f8:	8f e5       	ldi	r24, 0x5F	; 95
    11fa:	90 e0       	ldi	r25, 0x00	; 0
    11fc:	2b 81       	ldd	r18, Y+3	; 0x03
    11fe:	fc 01       	movw	r30, r24
    1200:	20 83       	st	Z, r18
    1202:	00 00       	nop
    1204:	0f 90       	pop	r0
    1206:	0f 90       	pop	r0
    1208:	0f 90       	pop	r0
    120a:	df 91       	pop	r29
    120c:	cf 91       	pop	r28
    120e:	08 95       	ret

00001210 <LCD_DrawPixel>:
    1210:	cf 93       	push	r28
    1212:	df 93       	push	r29
    1214:	00 d0       	rcall	.+0      	; 0x1216 <LCD_DrawPixel+0x6>
    1216:	00 d0       	rcall	.+0      	; 0x1218 <LCD_DrawPixel+0x8>
    1218:	1f 92       	push	r1
    121a:	cd b7       	in	r28, 0x3d	; 61
    121c:	de b7       	in	r29, 0x3e	; 62
    121e:	8b 83       	std	Y+3, r24	; 0x03
    1220:	6c 83       	std	Y+4, r22	; 0x04
    1222:	4d 83       	std	Y+5, r20	; 0x05
    1224:	8b 81       	ldd	r24, Y+3	; 0x03
    1226:	88 23       	and	r24, r24
    1228:	0c f4       	brge	.+2      	; 0x122c <LCD_DrawPixel+0x1c>
    122a:	a0 c0       	rjmp	.+320    	; 0x136c <LCD_DrawPixel+0x15c>
    122c:	8c 81       	ldd	r24, Y+4	; 0x04
    122e:	80 34       	cpi	r24, 0x40	; 64
    1230:	08 f0       	brcs	.+2      	; 0x1234 <LCD_DrawPixel+0x24>
    1232:	9c c0       	rjmp	.+312    	; 0x136c <LCD_DrawPixel+0x15c>
    1234:	8c 81       	ldd	r24, Y+4	; 0x04
    1236:	86 95       	lsr	r24
    1238:	86 95       	lsr	r24
    123a:	86 95       	lsr	r24
    123c:	89 83       	std	Y+1, r24	; 0x01
    123e:	8c 81       	ldd	r24, Y+4	; 0x04
    1240:	88 2f       	mov	r24, r24
    1242:	90 e0       	ldi	r25, 0x00	; 0
    1244:	9c 01       	movw	r18, r24
    1246:	27 70       	andi	r18, 0x07	; 7
    1248:	33 27       	eor	r19, r19
    124a:	81 e0       	ldi	r24, 0x01	; 1
    124c:	90 e0       	ldi	r25, 0x00	; 0
    124e:	02 c0       	rjmp	.+4      	; 0x1254 <LCD_DrawPixel+0x44>
    1250:	88 0f       	add	r24, r24
    1252:	99 1f       	adc	r25, r25
    1254:	2a 95       	dec	r18
    1256:	e2 f7       	brpl	.-8      	; 0x1250 <LCD_DrawPixel+0x40>
    1258:	8a 83       	std	Y+2, r24	; 0x02
    125a:	8d 81       	ldd	r24, Y+5	; 0x05
    125c:	88 2f       	mov	r24, r24
    125e:	90 e0       	ldi	r25, 0x00	; 0
    1260:	00 97       	sbiw	r24, 0x00	; 0
    1262:	19 f0       	breq	.+6      	; 0x126a <LCD_DrawPixel+0x5a>
    1264:	02 97       	sbiw	r24, 0x02	; 2
    1266:	41 f1       	breq	.+80     	; 0x12b8 <LCD_DrawPixel+0xa8>
    1268:	4c c0       	rjmp	.+152    	; 0x1302 <LCD_DrawPixel+0xf2>
    126a:	89 81       	ldd	r24, Y+1	; 0x01
    126c:	28 2f       	mov	r18, r24
    126e:	30 e0       	ldi	r19, 0x00	; 0
    1270:	8b 81       	ldd	r24, Y+3	; 0x03
    1272:	88 2f       	mov	r24, r24
    1274:	90 e0       	ldi	r25, 0x00	; 0
    1276:	49 81       	ldd	r20, Y+1	; 0x01
    1278:	64 2f       	mov	r22, r20
    127a:	70 e0       	ldi	r23, 0x00	; 0
    127c:	4b 81       	ldd	r20, Y+3	; 0x03
    127e:	44 2f       	mov	r20, r20
    1280:	50 e0       	ldi	r21, 0x00	; 0
    1282:	76 95       	lsr	r23
    1284:	76 2f       	mov	r23, r22
    1286:	66 27       	eor	r22, r22
    1288:	77 95       	ror	r23
    128a:	67 95       	ror	r22
    128c:	46 0f       	add	r20, r22
    128e:	57 1f       	adc	r21, r23
    1290:	46 5b       	subi	r20, 0xB6	; 182
    1292:	5a 4f       	sbci	r21, 0xFA	; 250
    1294:	fa 01       	movw	r30, r20
    1296:	40 81       	ld	r20, Z
    1298:	54 2f       	mov	r21, r20
    129a:	4a 81       	ldd	r20, Y+2	; 0x02
    129c:	40 95       	com	r20
    129e:	45 23       	and	r20, r21
    12a0:	36 95       	lsr	r19
    12a2:	32 2f       	mov	r19, r18
    12a4:	22 27       	eor	r18, r18
    12a6:	37 95       	ror	r19
    12a8:	27 95       	ror	r18
    12aa:	82 0f       	add	r24, r18
    12ac:	93 1f       	adc	r25, r19
    12ae:	86 5b       	subi	r24, 0xB6	; 182
    12b0:	9a 4f       	sbci	r25, 0xFA	; 250
    12b2:	fc 01       	movw	r30, r24
    12b4:	40 83       	st	Z, r20
    12b6:	4a c0       	rjmp	.+148    	; 0x134c <LCD_DrawPixel+0x13c>
    12b8:	89 81       	ldd	r24, Y+1	; 0x01
    12ba:	28 2f       	mov	r18, r24
    12bc:	30 e0       	ldi	r19, 0x00	; 0
    12be:	8b 81       	ldd	r24, Y+3	; 0x03
    12c0:	88 2f       	mov	r24, r24
    12c2:	90 e0       	ldi	r25, 0x00	; 0
    12c4:	49 81       	ldd	r20, Y+1	; 0x01
    12c6:	64 2f       	mov	r22, r20
    12c8:	70 e0       	ldi	r23, 0x00	; 0
    12ca:	4b 81       	ldd	r20, Y+3	; 0x03
    12cc:	44 2f       	mov	r20, r20
    12ce:	50 e0       	ldi	r21, 0x00	; 0
    12d0:	76 95       	lsr	r23
    12d2:	76 2f       	mov	r23, r22
    12d4:	66 27       	eor	r22, r22
    12d6:	77 95       	ror	r23
    12d8:	67 95       	ror	r22
    12da:	46 0f       	add	r20, r22
    12dc:	57 1f       	adc	r21, r23
    12de:	46 5b       	subi	r20, 0xB6	; 182
    12e0:	5a 4f       	sbci	r21, 0xFA	; 250
    12e2:	fa 01       	movw	r30, r20
    12e4:	50 81       	ld	r21, Z
    12e6:	4a 81       	ldd	r20, Y+2	; 0x02
    12e8:	45 27       	eor	r20, r21
    12ea:	36 95       	lsr	r19
    12ec:	32 2f       	mov	r19, r18
    12ee:	22 27       	eor	r18, r18
    12f0:	37 95       	ror	r19
    12f2:	27 95       	ror	r18
    12f4:	82 0f       	add	r24, r18
    12f6:	93 1f       	adc	r25, r19
    12f8:	86 5b       	subi	r24, 0xB6	; 182
    12fa:	9a 4f       	sbci	r25, 0xFA	; 250
    12fc:	fc 01       	movw	r30, r24
    12fe:	40 83       	st	Z, r20
    1300:	25 c0       	rjmp	.+74     	; 0x134c <LCD_DrawPixel+0x13c>
    1302:	89 81       	ldd	r24, Y+1	; 0x01
    1304:	28 2f       	mov	r18, r24
    1306:	30 e0       	ldi	r19, 0x00	; 0
    1308:	8b 81       	ldd	r24, Y+3	; 0x03
    130a:	88 2f       	mov	r24, r24
    130c:	90 e0       	ldi	r25, 0x00	; 0
    130e:	49 81       	ldd	r20, Y+1	; 0x01
    1310:	64 2f       	mov	r22, r20
    1312:	70 e0       	ldi	r23, 0x00	; 0
    1314:	4b 81       	ldd	r20, Y+3	; 0x03
    1316:	44 2f       	mov	r20, r20
    1318:	50 e0       	ldi	r21, 0x00	; 0
    131a:	76 95       	lsr	r23
    131c:	76 2f       	mov	r23, r22
    131e:	66 27       	eor	r22, r22
    1320:	77 95       	ror	r23
    1322:	67 95       	ror	r22
    1324:	46 0f       	add	r20, r22
    1326:	57 1f       	adc	r21, r23
    1328:	46 5b       	subi	r20, 0xB6	; 182
    132a:	5a 4f       	sbci	r21, 0xFA	; 250
    132c:	fa 01       	movw	r30, r20
    132e:	50 81       	ld	r21, Z
    1330:	4a 81       	ldd	r20, Y+2	; 0x02
    1332:	45 2b       	or	r20, r21
    1334:	36 95       	lsr	r19
    1336:	32 2f       	mov	r19, r18
    1338:	22 27       	eor	r18, r18
    133a:	37 95       	ror	r19
    133c:	27 95       	ror	r18
    133e:	82 0f       	add	r24, r18
    1340:	93 1f       	adc	r25, r19
    1342:	86 5b       	subi	r24, 0xB6	; 182
    1344:	9a 4f       	sbci	r25, 0xFA	; 250
    1346:	fc 01       	movw	r30, r24
    1348:	40 83       	st	Z, r20
    134a:	00 00       	nop
    134c:	89 81       	ldd	r24, Y+1	; 0x01
    134e:	28 2f       	mov	r18, r24
    1350:	30 e0       	ldi	r19, 0x00	; 0
    1352:	81 e0       	ldi	r24, 0x01	; 1
    1354:	90 e0       	ldi	r25, 0x00	; 0
    1356:	02 c0       	rjmp	.+4      	; 0x135c <LCD_DrawPixel+0x14c>
    1358:	88 0f       	add	r24, r24
    135a:	99 1f       	adc	r25, r25
    135c:	2a 95       	dec	r18
    135e:	e2 f7       	brpl	.-8      	; 0x1358 <LCD_DrawPixel+0x148>
    1360:	98 2f       	mov	r25, r24
    1362:	80 91 16 01 	lds	r24, 0x0116	; 0x800116 <lcd_frameupdate>
    1366:	89 2b       	or	r24, r25
    1368:	80 93 16 01 	sts	0x0116, r24	; 0x800116 <lcd_frameupdate>
    136c:	00 00       	nop
    136e:	0f 90       	pop	r0
    1370:	0f 90       	pop	r0
    1372:	0f 90       	pop	r0
    1374:	0f 90       	pop	r0
    1376:	0f 90       	pop	r0
    1378:	df 91       	pop	r29
    137a:	cf 91       	pop	r28
    137c:	08 95       	ret

0000137e <LCD_DrawLine>:
    137e:	0f 93       	push	r16
    1380:	cf 93       	push	r28
    1382:	df 93       	push	r29
    1384:	cd b7       	in	r28, 0x3d	; 61
    1386:	de b7       	in	r29, 0x3e	; 62
    1388:	2b 97       	sbiw	r28, 0x0b	; 11
    138a:	0f b6       	in	r0, 0x3f	; 63
    138c:	f8 94       	cli
    138e:	de bf       	out	0x3e, r29	; 62
    1390:	0f be       	out	0x3f, r0	; 63
    1392:	cd bf       	out	0x3d, r28	; 61
    1394:	8f 83       	std	Y+7, r24	; 0x07
    1396:	68 87       	std	Y+8, r22	; 0x08
    1398:	49 87       	std	Y+9, r20	; 0x09
    139a:	2a 87       	std	Y+10, r18	; 0x0a
    139c:	0b 87       	std	Y+11, r16	; 0x0b
    139e:	89 85       	ldd	r24, Y+9	; 0x09
    13a0:	28 2f       	mov	r18, r24
    13a2:	30 e0       	ldi	r19, 0x00	; 0
    13a4:	8f 81       	ldd	r24, Y+7	; 0x07
    13a6:	88 2f       	mov	r24, r24
    13a8:	90 e0       	ldi	r25, 0x00	; 0
    13aa:	a9 01       	movw	r20, r18
    13ac:	48 1b       	sub	r20, r24
    13ae:	59 0b       	sbc	r21, r25
    13b0:	ca 01       	movw	r24, r20
    13b2:	99 23       	and	r25, r25
    13b4:	1c f4       	brge	.+6      	; 0x13bc <LCD_DrawLine+0x3e>
    13b6:	91 95       	neg	r25
    13b8:	81 95       	neg	r24
    13ba:	91 09       	sbc	r25, r1
    13bc:	8a 83       	std	Y+2, r24	; 0x02
    13be:	8a 85       	ldd	r24, Y+10	; 0x0a
    13c0:	28 2f       	mov	r18, r24
    13c2:	30 e0       	ldi	r19, 0x00	; 0
    13c4:	88 85       	ldd	r24, Y+8	; 0x08
    13c6:	88 2f       	mov	r24, r24
    13c8:	90 e0       	ldi	r25, 0x00	; 0
    13ca:	a9 01       	movw	r20, r18
    13cc:	48 1b       	sub	r20, r24
    13ce:	59 0b       	sbc	r21, r25
    13d0:	ca 01       	movw	r24, r20
    13d2:	99 23       	and	r25, r25
    13d4:	1c f4       	brge	.+6      	; 0x13dc <LCD_DrawLine+0x5e>
    13d6:	91 95       	neg	r25
    13d8:	81 95       	neg	r24
    13da:	91 09       	sbc	r25, r1
    13dc:	8b 83       	std	Y+3, r24	; 0x03
    13de:	9f 81       	ldd	r25, Y+7	; 0x07
    13e0:	89 85       	ldd	r24, Y+9	; 0x09
    13e2:	98 17       	cp	r25, r24
    13e4:	10 f4       	brcc	.+4      	; 0x13ea <LCD_DrawLine+0x6c>
    13e6:	81 e0       	ldi	r24, 0x01	; 1
    13e8:	01 c0       	rjmp	.+2      	; 0x13ec <LCD_DrawLine+0x6e>
    13ea:	8f ef       	ldi	r24, 0xFF	; 255
    13ec:	8c 83       	std	Y+4, r24	; 0x04
    13ee:	98 85       	ldd	r25, Y+8	; 0x08
    13f0:	8a 85       	ldd	r24, Y+10	; 0x0a
    13f2:	98 17       	cp	r25, r24
    13f4:	10 f4       	brcc	.+4      	; 0x13fa <LCD_DrawLine+0x7c>
    13f6:	81 e0       	ldi	r24, 0x01	; 1
    13f8:	01 c0       	rjmp	.+2      	; 0x13fc <LCD_DrawLine+0x7e>
    13fa:	8f ef       	ldi	r24, 0xFF	; 255
    13fc:	8d 83       	std	Y+5, r24	; 0x05
    13fe:	9a 81       	ldd	r25, Y+2	; 0x02
    1400:	8b 81       	ldd	r24, Y+3	; 0x03
    1402:	89 17       	cp	r24, r25
    1404:	34 f4       	brge	.+12     	; 0x1412 <LCD_DrawLine+0x94>
    1406:	8a 81       	ldd	r24, Y+2	; 0x02
    1408:	88 23       	and	r24, r24
    140a:	0c f4       	brge	.+2      	; 0x140e <LCD_DrawLine+0x90>
    140c:	8f 5f       	subi	r24, 0xFF	; 255
    140e:	85 95       	asr	r24
    1410:	0c c0       	rjmp	.+24     	; 0x142a <LCD_DrawLine+0xac>
    1412:	8b 81       	ldd	r24, Y+3	; 0x03
    1414:	08 2e       	mov	r0, r24
    1416:	00 0c       	add	r0, r0
    1418:	99 0b       	sbc	r25, r25
    141a:	91 95       	neg	r25
    141c:	81 95       	neg	r24
    141e:	91 09       	sbc	r25, r1
    1420:	99 23       	and	r25, r25
    1422:	0c f4       	brge	.+2      	; 0x1426 <LCD_DrawLine+0xa8>
    1424:	01 96       	adiw	r24, 0x01	; 1
    1426:	95 95       	asr	r25
    1428:	87 95       	ror	r24
    142a:	89 83       	std	Y+1, r24	; 0x01
    142c:	4b 85       	ldd	r20, Y+11	; 0x0b
    142e:	68 85       	ldd	r22, Y+8	; 0x08
    1430:	8f 81       	ldd	r24, Y+7	; 0x07
    1432:	ee de       	rcall	.-548    	; 0x1210 <LCD_DrawPixel>
    1434:	9f 81       	ldd	r25, Y+7	; 0x07
    1436:	89 85       	ldd	r24, Y+9	; 0x09
    1438:	98 17       	cp	r25, r24
    143a:	21 f4       	brne	.+8      	; 0x1444 <LCD_DrawLine+0xc6>
    143c:	98 85       	ldd	r25, Y+8	; 0x08
    143e:	8a 85       	ldd	r24, Y+10	; 0x0a
    1440:	98 17       	cp	r25, r24
    1442:	39 f1       	breq	.+78     	; 0x1492 <LCD_DrawLine+0x114>
    1444:	89 81       	ldd	r24, Y+1	; 0x01
    1446:	8e 83       	std	Y+6, r24	; 0x06
    1448:	8e 81       	ldd	r24, Y+6	; 0x06
    144a:	28 2f       	mov	r18, r24
    144c:	88 0f       	add	r24, r24
    144e:	33 0b       	sbc	r19, r19
    1450:	8a 81       	ldd	r24, Y+2	; 0x02
    1452:	08 2e       	mov	r0, r24
    1454:	00 0c       	add	r0, r0
    1456:	99 0b       	sbc	r25, r25
    1458:	91 95       	neg	r25
    145a:	81 95       	neg	r24
    145c:	91 09       	sbc	r25, r1
    145e:	82 17       	cp	r24, r18
    1460:	93 07       	cpc	r25, r19
    1462:	54 f4       	brge	.+20     	; 0x1478 <LCD_DrawLine+0xfa>
    1464:	99 81       	ldd	r25, Y+1	; 0x01
    1466:	8b 81       	ldd	r24, Y+3	; 0x03
    1468:	59 2f       	mov	r21, r25
    146a:	58 1b       	sub	r21, r24
    146c:	85 2f       	mov	r24, r21
    146e:	89 83       	std	Y+1, r24	; 0x01
    1470:	8c 81       	ldd	r24, Y+4	; 0x04
    1472:	9f 81       	ldd	r25, Y+7	; 0x07
    1474:	89 0f       	add	r24, r25
    1476:	8f 83       	std	Y+7, r24	; 0x07
    1478:	9e 81       	ldd	r25, Y+6	; 0x06
    147a:	8b 81       	ldd	r24, Y+3	; 0x03
    147c:	98 17       	cp	r25, r24
    147e:	b4 f6       	brge	.-84     	; 0x142c <LCD_DrawLine+0xae>
    1480:	99 81       	ldd	r25, Y+1	; 0x01
    1482:	8a 81       	ldd	r24, Y+2	; 0x02
    1484:	89 0f       	add	r24, r25
    1486:	89 83       	std	Y+1, r24	; 0x01
    1488:	8d 81       	ldd	r24, Y+5	; 0x05
    148a:	98 85       	ldd	r25, Y+8	; 0x08
    148c:	89 0f       	add	r24, r25
    148e:	88 87       	std	Y+8, r24	; 0x08
    1490:	cd cf       	rjmp	.-102    	; 0x142c <LCD_DrawLine+0xae>
    1492:	00 00       	nop
    1494:	00 00       	nop
    1496:	2b 96       	adiw	r28, 0x0b	; 11
    1498:	0f b6       	in	r0, 0x3f	; 63
    149a:	f8 94       	cli
    149c:	de bf       	out	0x3e, r29	; 62
    149e:	0f be       	out	0x3f, r0	; 63
    14a0:	cd bf       	out	0x3d, r28	; 61
    14a2:	df 91       	pop	r29
    14a4:	cf 91       	pop	r28
    14a6:	0f 91       	pop	r16
    14a8:	08 95       	ret

000014aa <LCD_PutChar>:
    14aa:	cf 93       	push	r28
    14ac:	df 93       	push	r29
    14ae:	cd b7       	in	r28, 0x3d	; 61
    14b0:	de b7       	in	r29, 0x3e	; 62
    14b2:	29 97       	sbiw	r28, 0x09	; 9
    14b4:	0f b6       	in	r0, 0x3f	; 63
    14b6:	f8 94       	cli
    14b8:	de bf       	out	0x3e, r29	; 62
    14ba:	0f be       	out	0x3f, r0	; 63
    14bc:	cd bf       	out	0x3d, r28	; 61
    14be:	89 87       	std	Y+9, r24	; 0x09
    14c0:	89 85       	ldd	r24, Y+9	; 0x09
    14c2:	88 2f       	mov	r24, r24
    14c4:	90 e0       	ldi	r25, 0x00	; 0
    14c6:	8a 30       	cpi	r24, 0x0A	; 10
    14c8:	91 05       	cpc	r25, r1
    14ca:	29 f0       	breq	.+10     	; 0x14d6 <LCD_PutChar+0x2c>
    14cc:	0d 97       	sbiw	r24, 0x0d	; 13
    14ce:	71 f4       	brne	.+28     	; 0x14ec <LCD_PutChar+0x42>
    14d0:	10 92 17 01 	sts	0x0117, r1	; 0x800117 <lcd_textx>
    14d4:	d9 c0       	rjmp	.+434    	; 0x1688 <LCD_PutChar+0x1de>
    14d6:	80 91 18 01 	lds	r24, 0x0118	; 0x800118 <lcd_texty>
    14da:	87 30       	cpi	r24, 0x07	; 7
    14dc:	08 f0       	brcs	.+2      	; 0x14e0 <LCD_PutChar+0x36>
    14de:	d1 c0       	rjmp	.+418    	; 0x1682 <LCD_PutChar+0x1d8>
    14e0:	80 91 18 01 	lds	r24, 0x0118	; 0x800118 <lcd_texty>
    14e4:	8f 5f       	subi	r24, 0xFF	; 255
    14e6:	80 93 18 01 	sts	0x0118, r24	; 0x800118 <lcd_texty>
    14ea:	cb c0       	rjmp	.+406    	; 0x1682 <LCD_PutChar+0x1d8>
    14ec:	80 91 19 01 	lds	r24, 0x0119	; 0x800119 <invert>
    14f0:	88 23       	and	r24, r24
    14f2:	09 f0       	breq	.+2      	; 0x14f6 <LCD_PutChar+0x4c>
    14f4:	60 c0       	rjmp	.+192    	; 0x15b6 <LCD_PutChar+0x10c>
    14f6:	19 82       	std	Y+1, r1	; 0x01
    14f8:	3e c0       	rjmp	.+124    	; 0x1576 <LCD_PutChar+0xcc>
    14fa:	80 91 18 01 	lds	r24, 0x0118	; 0x800118 <lcd_texty>
    14fe:	68 2f       	mov	r22, r24
    1500:	70 e0       	ldi	r23, 0x00	; 0
    1502:	80 91 17 01 	lds	r24, 0x0117	; 0x800117 <lcd_textx>
    1506:	28 2f       	mov	r18, r24
    1508:	30 e0       	ldi	r19, 0x00	; 0
    150a:	c9 01       	movw	r24, r18
    150c:	88 0f       	add	r24, r24
    150e:	99 1f       	adc	r25, r25
    1510:	82 0f       	add	r24, r18
    1512:	93 1f       	adc	r25, r19
    1514:	88 0f       	add	r24, r24
    1516:	99 1f       	adc	r25, r25
    1518:	9c 01       	movw	r18, r24
    151a:	89 81       	ldd	r24, Y+1	; 0x01
    151c:	88 2f       	mov	r24, r24
    151e:	90 e0       	ldi	r25, 0x00	; 0
    1520:	a9 01       	movw	r20, r18
    1522:	48 0f       	add	r20, r24
    1524:	59 1f       	adc	r21, r25
    1526:	89 85       	ldd	r24, Y+9	; 0x09
    1528:	28 2f       	mov	r18, r24
    152a:	30 e0       	ldi	r19, 0x00	; 0
    152c:	89 81       	ldd	r24, Y+1	; 0x01
    152e:	e8 2f       	mov	r30, r24
    1530:	f0 e0       	ldi	r31, 0x00	; 0
    1532:	c9 01       	movw	r24, r18
    1534:	88 0f       	add	r24, r24
    1536:	99 1f       	adc	r25, r25
    1538:	82 0f       	add	r24, r18
    153a:	93 1f       	adc	r25, r19
    153c:	88 0f       	add	r24, r24
    153e:	99 1f       	adc	r25, r25
    1540:	8e 0f       	add	r24, r30
    1542:	9f 1f       	adc	r25, r31
    1544:	84 57       	subi	r24, 0x74	; 116
    1546:	9f 4f       	sbci	r25, 0xFF	; 255
    1548:	9c 83       	std	Y+4, r25	; 0x04
    154a:	8b 83       	std	Y+3, r24	; 0x03
    154c:	8b 81       	ldd	r24, Y+3	; 0x03
    154e:	9c 81       	ldd	r25, Y+4	; 0x04
    1550:	fc 01       	movw	r30, r24
    1552:	84 91       	lpm	r24, Z
    1554:	8d 83       	std	Y+5, r24	; 0x05
    1556:	2d 81       	ldd	r18, Y+5	; 0x05
    1558:	cb 01       	movw	r24, r22
    155a:	96 95       	lsr	r25
    155c:	98 2f       	mov	r25, r24
    155e:	88 27       	eor	r24, r24
    1560:	97 95       	ror	r25
    1562:	87 95       	ror	r24
    1564:	84 0f       	add	r24, r20
    1566:	95 1f       	adc	r25, r21
    1568:	86 5b       	subi	r24, 0xB6	; 182
    156a:	9a 4f       	sbci	r25, 0xFA	; 250
    156c:	fc 01       	movw	r30, r24
    156e:	20 83       	st	Z, r18
    1570:	89 81       	ldd	r24, Y+1	; 0x01
    1572:	8f 5f       	subi	r24, 0xFF	; 255
    1574:	89 83       	std	Y+1, r24	; 0x01
    1576:	89 81       	ldd	r24, Y+1	; 0x01
    1578:	86 30       	cpi	r24, 0x06	; 6
    157a:	08 f4       	brcc	.+2      	; 0x157e <LCD_PutChar+0xd4>
    157c:	be cf       	rjmp	.-132    	; 0x14fa <LCD_PutChar+0x50>
    157e:	80 91 18 01 	lds	r24, 0x0118	; 0x800118 <lcd_texty>
    1582:	28 2f       	mov	r18, r24
    1584:	30 e0       	ldi	r19, 0x00	; 0
    1586:	81 e0       	ldi	r24, 0x01	; 1
    1588:	90 e0       	ldi	r25, 0x00	; 0
    158a:	02 c0       	rjmp	.+4      	; 0x1590 <LCD_PutChar+0xe6>
    158c:	88 0f       	add	r24, r24
    158e:	99 1f       	adc	r25, r25
    1590:	2a 95       	dec	r18
    1592:	e2 f7       	brpl	.-8      	; 0x158c <LCD_PutChar+0xe2>
    1594:	98 2f       	mov	r25, r24
    1596:	80 91 16 01 	lds	r24, 0x0116	; 0x800116 <lcd_frameupdate>
    159a:	89 2b       	or	r24, r25
    159c:	80 93 16 01 	sts	0x0116, r24	; 0x800116 <lcd_frameupdate>
    15a0:	80 91 17 01 	lds	r24, 0x0117	; 0x800117 <lcd_textx>
    15a4:	84 31       	cpi	r24, 0x14	; 20
    15a6:	08 f0       	brcs	.+2      	; 0x15aa <LCD_PutChar+0x100>
    15a8:	6e c0       	rjmp	.+220    	; 0x1686 <LCD_PutChar+0x1dc>
    15aa:	80 91 17 01 	lds	r24, 0x0117	; 0x800117 <lcd_textx>
    15ae:	8f 5f       	subi	r24, 0xFF	; 255
    15b0:	80 93 17 01 	sts	0x0117, r24	; 0x800117 <lcd_textx>
    15b4:	68 c0       	rjmp	.+208    	; 0x1686 <LCD_PutChar+0x1dc>
    15b6:	80 91 19 01 	lds	r24, 0x0119	; 0x800119 <invert>
    15ba:	81 30       	cpi	r24, 0x01	; 1
    15bc:	09 f0       	breq	.+2      	; 0x15c0 <LCD_PutChar+0x116>
    15be:	63 c0       	rjmp	.+198    	; 0x1686 <LCD_PutChar+0x1dc>
    15c0:	1a 82       	std	Y+2, r1	; 0x02
    15c2:	40 c0       	rjmp	.+128    	; 0x1644 <LCD_PutChar+0x19a>
    15c4:	80 91 18 01 	lds	r24, 0x0118	; 0x800118 <lcd_texty>
    15c8:	68 2f       	mov	r22, r24
    15ca:	70 e0       	ldi	r23, 0x00	; 0
    15cc:	80 91 17 01 	lds	r24, 0x0117	; 0x800117 <lcd_textx>
    15d0:	28 2f       	mov	r18, r24
    15d2:	30 e0       	ldi	r19, 0x00	; 0
    15d4:	c9 01       	movw	r24, r18
    15d6:	88 0f       	add	r24, r24
    15d8:	99 1f       	adc	r25, r25
    15da:	82 0f       	add	r24, r18
    15dc:	93 1f       	adc	r25, r19
    15de:	88 0f       	add	r24, r24
    15e0:	99 1f       	adc	r25, r25
    15e2:	9c 01       	movw	r18, r24
    15e4:	8a 81       	ldd	r24, Y+2	; 0x02
    15e6:	88 2f       	mov	r24, r24
    15e8:	90 e0       	ldi	r25, 0x00	; 0
    15ea:	a9 01       	movw	r20, r18
    15ec:	48 0f       	add	r20, r24
    15ee:	59 1f       	adc	r21, r25
    15f0:	89 85       	ldd	r24, Y+9	; 0x09
    15f2:	28 2f       	mov	r18, r24
    15f4:	30 e0       	ldi	r19, 0x00	; 0
    15f6:	8a 81       	ldd	r24, Y+2	; 0x02
    15f8:	e8 2f       	mov	r30, r24
    15fa:	f0 e0       	ldi	r31, 0x00	; 0
    15fc:	c9 01       	movw	r24, r18
    15fe:	88 0f       	add	r24, r24
    1600:	99 1f       	adc	r25, r25
    1602:	82 0f       	add	r24, r18
    1604:	93 1f       	adc	r25, r19
    1606:	88 0f       	add	r24, r24
    1608:	99 1f       	adc	r25, r25
    160a:	8e 0f       	add	r24, r30
    160c:	9f 1f       	adc	r25, r31
    160e:	84 57       	subi	r24, 0x74	; 116
    1610:	9f 4f       	sbci	r25, 0xFF	; 255
    1612:	9f 83       	std	Y+7, r25	; 0x07
    1614:	8e 83       	std	Y+6, r24	; 0x06
    1616:	8e 81       	ldd	r24, Y+6	; 0x06
    1618:	9f 81       	ldd	r25, Y+7	; 0x07
    161a:	fc 01       	movw	r30, r24
    161c:	84 91       	lpm	r24, Z
    161e:	88 87       	std	Y+8, r24	; 0x08
    1620:	88 85       	ldd	r24, Y+8	; 0x08
    1622:	28 2f       	mov	r18, r24
    1624:	20 95       	com	r18
    1626:	cb 01       	movw	r24, r22
    1628:	96 95       	lsr	r25
    162a:	98 2f       	mov	r25, r24
    162c:	88 27       	eor	r24, r24
    162e:	97 95       	ror	r25
    1630:	87 95       	ror	r24
    1632:	84 0f       	add	r24, r20
    1634:	95 1f       	adc	r25, r21
    1636:	86 5b       	subi	r24, 0xB6	; 182
    1638:	9a 4f       	sbci	r25, 0xFA	; 250
    163a:	fc 01       	movw	r30, r24
    163c:	20 83       	st	Z, r18
    163e:	8a 81       	ldd	r24, Y+2	; 0x02
    1640:	8f 5f       	subi	r24, 0xFF	; 255
    1642:	8a 83       	std	Y+2, r24	; 0x02
    1644:	8a 81       	ldd	r24, Y+2	; 0x02
    1646:	86 30       	cpi	r24, 0x06	; 6
    1648:	08 f4       	brcc	.+2      	; 0x164c <LCD_PutChar+0x1a2>
    164a:	bc cf       	rjmp	.-136    	; 0x15c4 <LCD_PutChar+0x11a>
    164c:	80 91 18 01 	lds	r24, 0x0118	; 0x800118 <lcd_texty>
    1650:	28 2f       	mov	r18, r24
    1652:	30 e0       	ldi	r19, 0x00	; 0
    1654:	81 e0       	ldi	r24, 0x01	; 1
    1656:	90 e0       	ldi	r25, 0x00	; 0
    1658:	02 c0       	rjmp	.+4      	; 0x165e <LCD_PutChar+0x1b4>
    165a:	88 0f       	add	r24, r24
    165c:	99 1f       	adc	r25, r25
    165e:	2a 95       	dec	r18
    1660:	e2 f7       	brpl	.-8      	; 0x165a <LCD_PutChar+0x1b0>
    1662:	98 2f       	mov	r25, r24
    1664:	80 91 16 01 	lds	r24, 0x0116	; 0x800116 <lcd_frameupdate>
    1668:	89 2b       	or	r24, r25
    166a:	80 93 16 01 	sts	0x0116, r24	; 0x800116 <lcd_frameupdate>
    166e:	80 91 17 01 	lds	r24, 0x0117	; 0x800117 <lcd_textx>
    1672:	84 31       	cpi	r24, 0x14	; 20
    1674:	40 f4       	brcc	.+16     	; 0x1686 <LCD_PutChar+0x1dc>
    1676:	80 91 17 01 	lds	r24, 0x0117	; 0x800117 <lcd_textx>
    167a:	8f 5f       	subi	r24, 0xFF	; 255
    167c:	80 93 17 01 	sts	0x0117, r24	; 0x800117 <lcd_textx>
    1680:	02 c0       	rjmp	.+4      	; 0x1686 <LCD_PutChar+0x1dc>
    1682:	00 00       	nop
    1684:	01 c0       	rjmp	.+2      	; 0x1688 <LCD_PutChar+0x1de>
    1686:	00 00       	nop
    1688:	00 00       	nop
    168a:	29 96       	adiw	r28, 0x09	; 9
    168c:	0f b6       	in	r0, 0x3f	; 63
    168e:	f8 94       	cli
    1690:	de bf       	out	0x3e, r29	; 62
    1692:	0f be       	out	0x3f, r0	; 63
    1694:	cd bf       	out	0x3d, r28	; 61
    1696:	df 91       	pop	r29
    1698:	cf 91       	pop	r28
    169a:	08 95       	ret

0000169c <LCD_PutString>:
    169c:	cf 93       	push	r28
    169e:	df 93       	push	r29
    16a0:	00 d0       	rcall	.+0      	; 0x16a2 <LCD_PutString+0x6>
    16a2:	cd b7       	in	r28, 0x3d	; 61
    16a4:	de b7       	in	r29, 0x3e	; 62
    16a6:	9a 83       	std	Y+2, r25	; 0x02
    16a8:	89 83       	std	Y+1, r24	; 0x01
    16aa:	89 81       	ldd	r24, Y+1	; 0x01
    16ac:	9a 81       	ldd	r25, Y+2	; 0x02
    16ae:	fc 01       	movw	r30, r24
    16b0:	80 81       	ld	r24, Z
    16b2:	88 23       	and	r24, r24
    16b4:	81 f0       	breq	.+32     	; 0x16d6 <LCD_PutString+0x3a>
    16b6:	89 81       	ldd	r24, Y+1	; 0x01
    16b8:	9a 81       	ldd	r25, Y+2	; 0x02
    16ba:	fc 01       	movw	r30, r24
    16bc:	80 81       	ld	r24, Z
    16be:	f5 de       	rcall	.-534    	; 0x14aa <LCD_PutChar>
    16c0:	89 81       	ldd	r24, Y+1	; 0x01
    16c2:	9a 81       	ldd	r25, Y+2	; 0x02
    16c4:	01 96       	adiw	r24, 0x01	; 1
    16c6:	9a 83       	std	Y+2, r25	; 0x02
    16c8:	89 83       	std	Y+1, r24	; 0x01
    16ca:	89 81       	ldd	r24, Y+1	; 0x01
    16cc:	9a 81       	ldd	r25, Y+2	; 0x02
    16ce:	fc 01       	movw	r30, r24
    16d0:	80 81       	ld	r24, Z
    16d2:	88 23       	and	r24, r24
    16d4:	81 f7       	brne	.-32     	; 0x16b6 <LCD_PutString+0x1a>
    16d6:	00 00       	nop
    16d8:	0f 90       	pop	r0
    16da:	0f 90       	pop	r0
    16dc:	df 91       	pop	r29
    16de:	cf 91       	pop	r28
    16e0:	08 95       	ret

000016e2 <LCD_PutString_P>:
    16e2:	cf 93       	push	r28
    16e4:	df 93       	push	r29
    16e6:	00 d0       	rcall	.+0      	; 0x16e8 <LCD_PutString_P+0x6>
    16e8:	00 d0       	rcall	.+0      	; 0x16ea <LCD_PutString_P+0x8>
    16ea:	00 d0       	rcall	.+0      	; 0x16ec <LCD_PutString_P+0xa>
    16ec:	cd b7       	in	r28, 0x3d	; 61
    16ee:	de b7       	in	r29, 0x3e	; 62
    16f0:	9e 83       	std	Y+6, r25	; 0x06
    16f2:	8d 83       	std	Y+5, r24	; 0x05
    16f4:	8d 81       	ldd	r24, Y+5	; 0x05
    16f6:	9e 81       	ldd	r25, Y+6	; 0x06
    16f8:	9a 83       	std	Y+2, r25	; 0x02
    16fa:	89 83       	std	Y+1, r24	; 0x01
    16fc:	89 81       	ldd	r24, Y+1	; 0x01
    16fe:	9a 81       	ldd	r25, Y+2	; 0x02
    1700:	fc 01       	movw	r30, r24
    1702:	84 91       	lpm	r24, Z
    1704:	8b 83       	std	Y+3, r24	; 0x03
    1706:	8b 81       	ldd	r24, Y+3	; 0x03
    1708:	8c 83       	std	Y+4, r24	; 0x04
    170a:	8d 81       	ldd	r24, Y+5	; 0x05
    170c:	9e 81       	ldd	r25, Y+6	; 0x06
    170e:	01 96       	adiw	r24, 0x01	; 1
    1710:	9e 83       	std	Y+6, r25	; 0x06
    1712:	8d 83       	std	Y+5, r24	; 0x05
    1714:	8c 81       	ldd	r24, Y+4	; 0x04
    1716:	88 23       	and	r24, r24
    1718:	19 f0       	breq	.+6      	; 0x1720 <LCD_PutString_P+0x3e>
    171a:	8c 81       	ldd	r24, Y+4	; 0x04
    171c:	c6 de       	rcall	.-628    	; 0x14aa <LCD_PutChar>
    171e:	ea cf       	rjmp	.-44     	; 0x16f4 <LCD_PutString_P+0x12>
    1720:	00 00       	nop
    1722:	00 00       	nop
    1724:	26 96       	adiw	r28, 0x06	; 6
    1726:	0f b6       	in	r0, 0x3f	; 63
    1728:	f8 94       	cli
    172a:	de bf       	out	0x3e, r29	; 62
    172c:	0f be       	out	0x3f, r0	; 63
    172e:	cd bf       	out	0x3d, r28	; 61
    1730:	df 91       	pop	r29
    1732:	cf 91       	pop	r28
    1734:	08 95       	ret

00001736 <LCD_PutNumber>:
    1736:	cf 93       	push	r28
    1738:	df 93       	push	r29
    173a:	00 d0       	rcall	.+0      	; 0x173c <LCD_PutNumber+0x6>
    173c:	00 d0       	rcall	.+0      	; 0x173e <LCD_PutNumber+0x8>
    173e:	00 d0       	rcall	.+0      	; 0x1740 <LCD_PutNumber+0xa>
    1740:	cd b7       	in	r28, 0x3d	; 61
    1742:	de b7       	in	r29, 0x3e	; 62
    1744:	8d 83       	std	Y+5, r24	; 0x05
    1746:	6e 83       	std	Y+6, r22	; 0x06
    1748:	8e 81       	ldd	r24, Y+6	; 0x06
    174a:	28 2f       	mov	r18, r24
    174c:	30 e0       	ldi	r19, 0x00	; 0
    174e:	8d 81       	ldd	r24, Y+5	; 0x05
    1750:	88 2f       	mov	r24, r24
    1752:	90 e0       	ldi	r25, 0x00	; 0
    1754:	a9 01       	movw	r20, r18
    1756:	9e 01       	movw	r18, r28
    1758:	2f 5f       	subi	r18, 0xFF	; 255
    175a:	3f 4f       	sbci	r19, 0xFF	; 255
    175c:	b9 01       	movw	r22, r18
    175e:	0e 94 52 19 	call	0x32a4	; 0x32a4 <itoa>
    1762:	ce 01       	movw	r24, r28
    1764:	01 96       	adiw	r24, 0x01	; 1
    1766:	9a df       	rcall	.-204    	; 0x169c <LCD_PutString>
    1768:	00 00       	nop
    176a:	26 96       	adiw	r28, 0x06	; 6
    176c:	0f b6       	in	r0, 0x3f	; 63
    176e:	f8 94       	cli
    1770:	de bf       	out	0x3e, r29	; 62
    1772:	0f be       	out	0x3f, r0	; 63
    1774:	cd bf       	out	0x3d, r28	; 61
    1776:	df 91       	pop	r29
    1778:	cf 91       	pop	r28
    177a:	08 95       	ret

0000177c <LCD_GotoXY>:
    177c:	cf 93       	push	r28
    177e:	df 93       	push	r29
    1780:	00 d0       	rcall	.+0      	; 0x1782 <LCD_GotoXY+0x6>
    1782:	cd b7       	in	r28, 0x3d	; 61
    1784:	de b7       	in	r29, 0x3e	; 62
    1786:	89 83       	std	Y+1, r24	; 0x01
    1788:	6a 83       	std	Y+2, r22	; 0x02
    178a:	89 81       	ldd	r24, Y+1	; 0x01
    178c:	80 93 17 01 	sts	0x0117, r24	; 0x800117 <lcd_textx>
    1790:	8a 81       	ldd	r24, Y+2	; 0x02
    1792:	80 93 18 01 	sts	0x0118, r24	; 0x800118 <lcd_texty>
    1796:	00 00       	nop
    1798:	0f 90       	pop	r0
    179a:	0f 90       	pop	r0
    179c:	df 91       	pop	r29
    179e:	cf 91       	pop	r28
    17a0:	08 95       	ret

000017a2 <Backlight_Off>:

void
Backlight_Off (void)
{
    17a2:	cf 93       	push	r28
    17a4:	df 93       	push	r29
    17a6:	cd b7       	in	r28, 0x3d	; 61
  TWI_Start();
  TWI_Address_RW(0xc4);
    17a8:	de b7       	in	r29, 0x3e	; 62
  TWI_Write(0x11);
    17aa:	d0 d2       	rcall	.+1440   	; 0x1d4c <TWI_Start>
  TWI_Write(0x00);
    17ac:	84 ec       	ldi	r24, 0xC4	; 196
  TWI_Write(0x00);
    17ae:	f7 d2       	rcall	.+1518   	; 0x1d9e <TWI_Address_RW>
  TWI_Write(0x00);
    17b0:	81 e1       	ldi	r24, 0x11	; 17
  TWI_Write(0x00);
    17b2:	26 d3       	rcall	.+1612   	; 0x1e00 <TWI_Write>
    17b4:	80 e0       	ldi	r24, 0x00	; 0
    17b6:	24 d3       	rcall	.+1608   	; 0x1e00 <TWI_Write>
  TWI_Write(0x00);
    17b8:	80 e0       	ldi	r24, 0x00	; 0
    17ba:	22 d3       	rcall	.+1604   	; 0x1e00 <TWI_Write>
    17bc:	80 e0       	ldi	r24, 0x00	; 0
  TWI_Stop();
    17be:	20 d3       	rcall	.+1600   	; 0x1e00 <TWI_Write>
    17c0:	80 e0       	ldi	r24, 0x00	; 0
}
    17c2:	1e d3       	rcall	.+1596   	; 0x1e00 <TWI_Write>
    17c4:	80 e0       	ldi	r24, 0x00	; 0
    17c6:	1c d3       	rcall	.+1592   	; 0x1e00 <TWI_Write>
    17c8:	4c d3       	rcall	.+1688   	; 0x1e62 <TWI_Stop>
    17ca:	00 00       	nop
    17cc:	df 91       	pop	r29
    17ce:	cf 91       	pop	r28
    17d0:	08 95       	ret

000017d2 <Backlight_LED>:

void
Backlight_LED (uint8_t led_selector)
{
    17d2:	cf 93       	push	r28
    17d4:	df 93       	push	r29
    17d6:	1f 92       	push	r1
    17d8:	cd b7       	in	r28, 0x3d	; 61
    17da:	de b7       	in	r29, 0x3e	; 62
  TWI_Start();
  TWI_Address_RW(0xc4);
    17dc:	89 83       	std	Y+1, r24	; 0x01
  TWI_Write(0x15);
    17de:	b6 d2       	rcall	.+1388   	; 0x1d4c <TWI_Start>
  TWI_Write(led_selector);
    17e0:	84 ec       	ldi	r24, 0xC4	; 196
    17e2:	dd d2       	rcall	.+1466   	; 0x1d9e <TWI_Address_RW>
    17e4:	85 e1       	ldi	r24, 0x15	; 21
  TWI_Stop();
    17e6:	0c d3       	rcall	.+1560   	; 0x1e00 <TWI_Write>
    17e8:	89 81       	ldd	r24, Y+1	; 0x01
}
    17ea:	0a d3       	rcall	.+1556   	; 0x1e00 <TWI_Write>
    17ec:	3a d3       	rcall	.+1652   	; 0x1e62 <TWI_Stop>
    17ee:	00 00       	nop
    17f0:	0f 90       	pop	r0
    17f2:	df 91       	pop	r29
    17f4:	cf 91       	pop	r28
    17f6:	08 95       	ret

000017f8 <start_sequence>:
#include "dataflash.h"
#include "Logo.h"


void start_sequence (void)
{
    17f8:	cf 93       	push	r28
    17fa:	df 93       	push	r29
    17fc:	cd b7       	in	r28, 0x3d	; 61
    17fe:	de b7       	in	r29, 0x3e	; 62
    1800:	a3 97       	sbiw	r28, 0x23	; 35
    1802:	0f b6       	in	r0, 0x3f	; 63
    1804:	f8 94       	cli
    1806:	de bf       	out	0x3e, r29	; 62
    1808:	0f be       	out	0x3f, r0	; 63
    180a:	cd bf       	out	0x3d, r28	; 61
	// Some counters
	uint16_t emg_offset = 0;
    180c:	1a 82       	std	Y+2, r1	; 0x02
    180e:	19 82       	std	Y+1, r1	; 0x01
	uint8_t fb_x = 0;
    1810:	1b 82       	std	Y+3, r1	; 0x03
	uint8_t fb_y = 0;
    1812:	1c 82       	std	Y+4, r1	; 0x04


	Backlight_LED(BL_RED_ON | BL_GREEN_ON | BL_BLUE_ON);
    1814:	85 e1       	ldi	r24, 0x15	; 21
	// Clear precautionally
	LCD_Clear();
    1816:	dd df       	rcall	.-70     	; 0x17d2 <Backlight_LED>
    1818:	4e dc       	rcall	.-1892   	; 0x10b6 <LCD_Clear>
	
	// Copy emglogo into framebuffer
	for (fb_y = 0; fb_y < 8; fb_y++)
    181a:	1c 82       	std	Y+4, r1	; 0x04
    181c:	2e c0       	rjmp	.+92     	; 0x187a <start_sequence+0x82>
	for (fb_x = 0; fb_x < 128; fb_x++)
    181e:	1b 82       	std	Y+3, r1	; 0x03
    1820:	26 c0       	rjmp	.+76     	; 0x186e <start_sequence+0x76>
	lcd_framebuffer[fb_y][fb_x] = pgm_read_byte(&Logo[emg_offset++]);
    1822:	8c 81       	ldd	r24, Y+4	; 0x04
    1824:	48 2f       	mov	r20, r24
    1826:	50 e0       	ldi	r21, 0x00	; 0
    1828:	8b 81       	ldd	r24, Y+3	; 0x03
    182a:	28 2f       	mov	r18, r24
    182c:	30 e0       	ldi	r19, 0x00	; 0
    182e:	89 81       	ldd	r24, Y+1	; 0x01
    1830:	9a 81       	ldd	r25, Y+2	; 0x02
    1832:	bc 01       	movw	r22, r24
    1834:	6f 5f       	subi	r22, 0xFF	; 255
    1836:	7f 4f       	sbci	r23, 0xFF	; 255
    1838:	7a 83       	std	Y+2, r23	; 0x02
    183a:	69 83       	std	Y+1, r22	; 0x01
    183c:	84 57       	subi	r24, 0x74	; 116
    183e:	99 4f       	sbci	r25, 0xF9	; 249
    1840:	9e 83       	std	Y+6, r25	; 0x06
    1842:	8d 83       	std	Y+5, r24	; 0x05
    1844:	8d 81       	ldd	r24, Y+5	; 0x05
    1846:	9e 81       	ldd	r25, Y+6	; 0x06
    1848:	fc 01       	movw	r30, r24
    184a:	84 91       	lpm	r24, Z
    184c:	8f 83       	std	Y+7, r24	; 0x07
    184e:	6f 81       	ldd	r22, Y+7	; 0x07
    1850:	ca 01       	movw	r24, r20
    1852:	96 95       	lsr	r25
    1854:	98 2f       	mov	r25, r24
    1856:	88 27       	eor	r24, r24
    1858:	97 95       	ror	r25
    185a:	87 95       	ror	r24
    185c:	82 0f       	add	r24, r18
    185e:	93 1f       	adc	r25, r19
    1860:	86 5b       	subi	r24, 0xB6	; 182
    1862:	9a 4f       	sbci	r25, 0xFA	; 250
    1864:	fc 01       	movw	r30, r24
    1866:	60 83       	st	Z, r22
	// Clear precautionally
	LCD_Clear();
	
	// Copy emglogo into framebuffer
	for (fb_y = 0; fb_y < 8; fb_y++)
	for (fb_x = 0; fb_x < 128; fb_x++)
    1868:	8b 81       	ldd	r24, Y+3	; 0x03
    186a:	8f 5f       	subi	r24, 0xFF	; 255
    186c:	8b 83       	std	Y+3, r24	; 0x03
    186e:	8b 81       	ldd	r24, Y+3	; 0x03
    1870:	88 23       	and	r24, r24
    1872:	bc f6       	brge	.-82     	; 0x1822 <start_sequence+0x2a>
	Backlight_LED(BL_RED_ON | BL_GREEN_ON | BL_BLUE_ON);
	// Clear precautionally
	LCD_Clear();
	
	// Copy emglogo into framebuffer
	for (fb_y = 0; fb_y < 8; fb_y++)
    1874:	8c 81       	ldd	r24, Y+4	; 0x04
    1876:	8f 5f       	subi	r24, 0xFF	; 255
    1878:	8c 83       	std	Y+4, r24	; 0x04
    187a:	8c 81       	ldd	r24, Y+4	; 0x04
    187c:	88 30       	cpi	r24, 0x08	; 8
    187e:	78 f2       	brcs	.-98     	; 0x181e <start_sequence+0x26>
	for (fb_x = 0; fb_x < 128; fb_x++)
	lcd_framebuffer[fb_y][fb_x] = pgm_read_byte(&Logo[emg_offset++]);
	
	// Mark pages 0-4 for update
	lcd_frameupdate = 0xff;
    1880:	8f ef       	ldi	r24, 0xFF	; 255
    1882:	80 93 16 01 	sts	0x0116, r24	; 0x800116 <lcd_frameupdate>
	
	LCD_Update();
    1886:	49 dc       	rcall	.-1902   	; 0x111a <LCD_Update>
    1888:	80 e0       	ldi	r24, 0x00	; 0
    188a:	90 e8       	ldi	r25, 0x80	; 128
    188c:	ab e3       	ldi	r26, 0x3B	; 59
    188e:	b5 e4       	ldi	r27, 0x45	; 69
    1890:	88 87       	std	Y+8, r24	; 0x08
    1892:	99 87       	std	Y+9, r25	; 0x09
    1894:	aa 87       	std	Y+10, r26	; 0x0a
    1896:	bb 87       	std	Y+11, r27	; 0x0b

	__builtin_avr_delay_cycles(__ticks_dc);

#else
	uint16_t __ticks;
	__tmp = ((F_CPU) / 4e3) * __ms;
    1898:	20 e0       	ldi	r18, 0x00	; 0
    189a:	30 e0       	ldi	r19, 0x00	; 0
    189c:	4a e7       	ldi	r20, 0x7A	; 122
    189e:	55 e4       	ldi	r21, 0x45	; 69
    18a0:	68 85       	ldd	r22, Y+8	; 0x08
    18a2:	79 85       	ldd	r23, Y+9	; 0x09
    18a4:	8a 85       	ldd	r24, Y+10	; 0x0a
    18a6:	9b 85       	ldd	r25, Y+11	; 0x0b
    18a8:	0e 94 a5 18 	call	0x314a	; 0x314a <__mulsf3>
    18ac:	dc 01       	movw	r26, r24
    18ae:	cb 01       	movw	r24, r22
    18b0:	8a 8f       	std	Y+26, r24	; 0x1a
    18b2:	9b 8f       	std	Y+27, r25	; 0x1b
    18b4:	ac 8f       	std	Y+28, r26	; 0x1c
    18b6:	bd 8f       	std	Y+29, r27	; 0x1d
	if (__tmp < 1.0)
    18b8:	20 e0       	ldi	r18, 0x00	; 0
    18ba:	30 e0       	ldi	r19, 0x00	; 0
    18bc:	40 e8       	ldi	r20, 0x80	; 128
    18be:	5f e3       	ldi	r21, 0x3F	; 63
    18c0:	6a 8d       	ldd	r22, Y+26	; 0x1a
    18c2:	7b 8d       	ldd	r23, Y+27	; 0x1b
    18c4:	8c 8d       	ldd	r24, Y+28	; 0x1c
    18c6:	9d 8d       	ldd	r25, Y+29	; 0x1d
    18c8:	0e 94 52 17 	call	0x2ea4	; 0x2ea4 <__cmpsf2>
    18cc:	88 23       	and	r24, r24
    18ce:	2c f4       	brge	.+10     	; 0x18da <start_sequence+0xe2>
		__ticks = 1;
    18d0:	81 e0       	ldi	r24, 0x01	; 1
    18d2:	90 e0       	ldi	r25, 0x00	; 0
    18d4:	9f 8f       	std	Y+31, r25	; 0x1f
    18d6:	8e 8f       	std	Y+30, r24	; 0x1e
    18d8:	3f c0       	rjmp	.+126    	; 0x1958 <start_sequence+0x160>
	else if (__tmp > 65535)
    18da:	20 e0       	ldi	r18, 0x00	; 0
    18dc:	3f ef       	ldi	r19, 0xFF	; 255
    18de:	4f e7       	ldi	r20, 0x7F	; 127
    18e0:	57 e4       	ldi	r21, 0x47	; 71
    18e2:	6a 8d       	ldd	r22, Y+26	; 0x1a
    18e4:	7b 8d       	ldd	r23, Y+27	; 0x1b
    18e6:	8c 8d       	ldd	r24, Y+28	; 0x1c
    18e8:	9d 8d       	ldd	r25, Y+29	; 0x1d
    18ea:	0e 94 a1 18 	call	0x3142	; 0x3142 <__gesf2>
    18ee:	18 16       	cp	r1, r24
    18f0:	4c f5       	brge	.+82     	; 0x1944 <start_sequence+0x14c>
	{
		//	__ticks = requested delay in 1/10 ms
		__ticks = (uint16_t) (__ms * 10.0);
    18f2:	20 e0       	ldi	r18, 0x00	; 0
    18f4:	30 e0       	ldi	r19, 0x00	; 0
    18f6:	40 e2       	ldi	r20, 0x20	; 32
    18f8:	51 e4       	ldi	r21, 0x41	; 65
    18fa:	68 85       	ldd	r22, Y+8	; 0x08
    18fc:	79 85       	ldd	r23, Y+9	; 0x09
    18fe:	8a 85       	ldd	r24, Y+10	; 0x0a
    1900:	9b 85       	ldd	r25, Y+11	; 0x0b
    1902:	0e 94 a5 18 	call	0x314a	; 0x314a <__mulsf3>
    1906:	dc 01       	movw	r26, r24
    1908:	cb 01       	movw	r24, r22
    190a:	bc 01       	movw	r22, r24
    190c:	cd 01       	movw	r24, r26
    190e:	0e 94 c3 17 	call	0x2f86	; 0x2f86 <__fixunssfsi>
    1912:	dc 01       	movw	r26, r24
    1914:	cb 01       	movw	r24, r22
    1916:	9f 8f       	std	Y+31, r25	; 0x1f
    1918:	8e 8f       	std	Y+30, r24	; 0x1e
    191a:	0f c0       	rjmp	.+30     	; 0x193a <start_sequence+0x142>
    191c:	80 e9       	ldi	r24, 0x90	; 144
    191e:	91 e0       	ldi	r25, 0x01	; 1
    1920:	99 a3       	std	Y+33, r25	; 0x21
    1922:	88 a3       	std	Y+32, r24	; 0x20
    1924:	88 a1       	ldd	r24, Y+32	; 0x20
    1926:	99 a1       	ldd	r25, Y+33	; 0x21
    1928:	01 97       	sbiw	r24, 0x01	; 1
    192a:	f1 f7       	brne	.-4      	; 0x1928 <start_sequence+0x130>
    192c:	99 a3       	std	Y+33, r25	; 0x21
    192e:	88 a3       	std	Y+32, r24	; 0x20
		while(__ticks)
		{
			// wait 1/10 ms
			_delay_loop_2(((F_CPU) / 4e3) / 10);
			__ticks --;
    1930:	8e 8d       	ldd	r24, Y+30	; 0x1e
    1932:	9f 8d       	ldd	r25, Y+31	; 0x1f
    1934:	01 97       	sbiw	r24, 0x01	; 1
    1936:	9f 8f       	std	Y+31, r25	; 0x1f
    1938:	8e 8f       	std	Y+30, r24	; 0x1e
		__ticks = 1;
	else if (__tmp > 65535)
	{
		//	__ticks = requested delay in 1/10 ms
		__ticks = (uint16_t) (__ms * 10.0);
		while(__ticks)
    193a:	8e 8d       	ldd	r24, Y+30	; 0x1e
    193c:	9f 8d       	ldd	r25, Y+31	; 0x1f
    193e:	89 2b       	or	r24, r25
    1940:	69 f7       	brne	.-38     	; 0x191c <start_sequence+0x124>
    1942:	14 c0       	rjmp	.+40     	; 0x196c <start_sequence+0x174>
			__ticks --;
		}
		return;
	}
	else
		__ticks = (uint16_t)__tmp;
    1944:	6a 8d       	ldd	r22, Y+26	; 0x1a
    1946:	7b 8d       	ldd	r23, Y+27	; 0x1b
    1948:	8c 8d       	ldd	r24, Y+28	; 0x1c
    194a:	9d 8d       	ldd	r25, Y+29	; 0x1d
    194c:	0e 94 c3 17 	call	0x2f86	; 0x2f86 <__fixunssfsi>
    1950:	dc 01       	movw	r26, r24
    1952:	cb 01       	movw	r24, r22
    1954:	9f 8f       	std	Y+31, r25	; 0x1f
    1956:	8e 8f       	std	Y+30, r24	; 0x1e
    1958:	8e 8d       	ldd	r24, Y+30	; 0x1e
    195a:	9f 8d       	ldd	r25, Y+31	; 0x1f
    195c:	9b a3       	std	Y+35, r25	; 0x23
    195e:	8a a3       	std	Y+34, r24	; 0x22
    1960:	8a a1       	ldd	r24, Y+34	; 0x22
    1962:	9b a1       	ldd	r25, Y+35	; 0x23
    1964:	01 97       	sbiw	r24, 0x01	; 1
    1966:	f1 f7       	brne	.-4      	; 0x1964 <start_sequence+0x16c>
	_delay_ms(3000);
	LCD_Clear();
    1968:	9b a3       	std	Y+35, r25	; 0x23
	
	LCD_GotoXY(0,0);
    196a:	8a a3       	std	Y+34, r24	; 0x22
    196c:	a4 db       	rcall	.-2232   	; 0x10b6 <LCD_Clear>
	LCD_PutString_P(PSTR("DMM-Projekt Nr.4 \r\n"));
    196e:	60 e0       	ldi	r22, 0x00	; 0
    1970:	80 e0       	ldi	r24, 0x00	; 0
	LCD_PutString_P(PSTR("Geschwindigkeitsabhaeng.\r\n"));
    1972:	04 df       	rcall	.-504    	; 0x177c <LCD_GotoXY>
    1974:	8c e8       	ldi	r24, 0x8C	; 140
    1976:	9a e0       	ldi	r25, 0x0A	; 10
	LCD_PutString_P(PSTR("Fahrwiderstand\r\n"));
    1978:	b4 de       	rcall	.-664    	; 0x16e2 <LCD_PutString_P>
    197a:	80 ea       	ldi	r24, 0xA0	; 160
	LCD_PutString_P(PSTR("Teilnehmer:\r\n"));
    197c:	9a e0       	ldi	r25, 0x0A	; 10
    197e:	b1 de       	rcall	.-670    	; 0x16e2 <LCD_PutString_P>
	LCD_PutString_P(PSTR("Niklas Kuhrmeyer\r\n"));
    1980:	8b eb       	ldi	r24, 0xBB	; 187
    1982:	9a e0       	ldi	r25, 0x0A	; 10
    1984:	ae de       	rcall	.-676    	; 0x16e2 <LCD_PutString_P>
    1986:	8c ec       	ldi	r24, 0xCC	; 204
	LCD_PutString_P(PSTR("Philipp Leifer\r\n"));
    1988:	9a e0       	ldi	r25, 0x0A	; 10
    198a:	ab de       	rcall	.-682    	; 0x16e2 <LCD_PutString_P>
    198c:	8a ed       	ldi	r24, 0xDA	; 218
    198e:	9a e0       	ldi	r25, 0x0A	; 10
	LCD_Update();
    1990:	a8 de       	rcall	.-688    	; 0x16e2 <LCD_PutString_P>
    1992:	8d ee       	ldi	r24, 0xED	; 237
    1994:	9a e0       	ldi	r25, 0x0A	; 10
    1996:	a5 de       	rcall	.-694    	; 0x16e2 <LCD_PutString_P>
    1998:	c0 db       	rcall	.-2176   	; 0x111a <LCD_Update>
    199a:	80 e0       	ldi	r24, 0x00	; 0
    199c:	90 e8       	ldi	r25, 0x80	; 128
    199e:	ab e3       	ldi	r26, 0x3B	; 59
    19a0:	b5 e4       	ldi	r27, 0x45	; 69
    19a2:	8c 87       	std	Y+12, r24	; 0x0c

	__builtin_avr_delay_cycles(__ticks_dc);

#else
	uint16_t __ticks;
	__tmp = ((F_CPU) / 4e3) * __ms;
    19a4:	9d 87       	std	Y+13, r25	; 0x0d
    19a6:	ae 87       	std	Y+14, r26	; 0x0e
    19a8:	bf 87       	std	Y+15, r27	; 0x0f
    19aa:	20 e0       	ldi	r18, 0x00	; 0
    19ac:	30 e0       	ldi	r19, 0x00	; 0
    19ae:	4a e7       	ldi	r20, 0x7A	; 122
    19b0:	55 e4       	ldi	r21, 0x45	; 69
    19b2:	6c 85       	ldd	r22, Y+12	; 0x0c
    19b4:	7d 85       	ldd	r23, Y+13	; 0x0d
    19b6:	8e 85       	ldd	r24, Y+14	; 0x0e
    19b8:	9f 85       	ldd	r25, Y+15	; 0x0f
    19ba:	0e 94 a5 18 	call	0x314a	; 0x314a <__mulsf3>
    19be:	dc 01       	movw	r26, r24
    19c0:	cb 01       	movw	r24, r22
    19c2:	88 8b       	std	Y+16, r24	; 0x10
	if (__tmp < 1.0)
    19c4:	99 8b       	std	Y+17, r25	; 0x11
    19c6:	aa 8b       	std	Y+18, r26	; 0x12
    19c8:	bb 8b       	std	Y+19, r27	; 0x13
    19ca:	20 e0       	ldi	r18, 0x00	; 0
    19cc:	30 e0       	ldi	r19, 0x00	; 0
    19ce:	40 e8       	ldi	r20, 0x80	; 128
    19d0:	5f e3       	ldi	r21, 0x3F	; 63
    19d2:	68 89       	ldd	r22, Y+16	; 0x10
    19d4:	79 89       	ldd	r23, Y+17	; 0x11
    19d6:	8a 89       	ldd	r24, Y+18	; 0x12
    19d8:	9b 89       	ldd	r25, Y+19	; 0x13
    19da:	0e 94 52 17 	call	0x2ea4	; 0x2ea4 <__cmpsf2>
		__ticks = 1;
    19de:	88 23       	and	r24, r24
    19e0:	2c f4       	brge	.+10     	; 0x19ec <start_sequence+0x1f4>
    19e2:	81 e0       	ldi	r24, 0x01	; 1
    19e4:	90 e0       	ldi	r25, 0x00	; 0
	else if (__tmp > 65535)
    19e6:	9d 8b       	std	Y+21, r25	; 0x15
    19e8:	8c 8b       	std	Y+20, r24	; 0x14
    19ea:	3f c0       	rjmp	.+126    	; 0x1a6a <start_sequence+0x272>
    19ec:	20 e0       	ldi	r18, 0x00	; 0
    19ee:	3f ef       	ldi	r19, 0xFF	; 255
    19f0:	4f e7       	ldi	r20, 0x7F	; 127
    19f2:	57 e4       	ldi	r21, 0x47	; 71
    19f4:	68 89       	ldd	r22, Y+16	; 0x10
    19f6:	79 89       	ldd	r23, Y+17	; 0x11
    19f8:	8a 89       	ldd	r24, Y+18	; 0x12
    19fa:	9b 89       	ldd	r25, Y+19	; 0x13
    19fc:	0e 94 a1 18 	call	0x3142	; 0x3142 <__gesf2>
	{
		//	__ticks = requested delay in 1/10 ms
		__ticks = (uint16_t) (__ms * 10.0);
    1a00:	18 16       	cp	r1, r24
    1a02:	4c f5       	brge	.+82     	; 0x1a56 <start_sequence+0x25e>
    1a04:	20 e0       	ldi	r18, 0x00	; 0
    1a06:	30 e0       	ldi	r19, 0x00	; 0
    1a08:	40 e2       	ldi	r20, 0x20	; 32
    1a0a:	51 e4       	ldi	r21, 0x41	; 65
    1a0c:	6c 85       	ldd	r22, Y+12	; 0x0c
    1a0e:	7d 85       	ldd	r23, Y+13	; 0x0d
    1a10:	8e 85       	ldd	r24, Y+14	; 0x0e
    1a12:	9f 85       	ldd	r25, Y+15	; 0x0f
    1a14:	0e 94 a5 18 	call	0x314a	; 0x314a <__mulsf3>
    1a18:	dc 01       	movw	r26, r24
    1a1a:	cb 01       	movw	r24, r22
    1a1c:	bc 01       	movw	r22, r24
    1a1e:	cd 01       	movw	r24, r26
    1a20:	0e 94 c3 17 	call	0x2f86	; 0x2f86 <__fixunssfsi>
    1a24:	dc 01       	movw	r26, r24
    1a26:	cb 01       	movw	r24, r22
    1a28:	9d 8b       	std	Y+21, r25	; 0x15
    1a2a:	8c 8b       	std	Y+20, r24	; 0x14
    1a2c:	0f c0       	rjmp	.+30     	; 0x1a4c <start_sequence+0x254>
    1a2e:	80 e9       	ldi	r24, 0x90	; 144
    1a30:	91 e0       	ldi	r25, 0x01	; 1
    1a32:	9f 8b       	std	Y+23, r25	; 0x17
    1a34:	8e 8b       	std	Y+22, r24	; 0x16
    1a36:	8e 89       	ldd	r24, Y+22	; 0x16
    1a38:	9f 89       	ldd	r25, Y+23	; 0x17
    1a3a:	01 97       	sbiw	r24, 0x01	; 1
		while(__ticks)
		{
			// wait 1/10 ms
			_delay_loop_2(((F_CPU) / 4e3) / 10);
			__ticks --;
    1a3c:	f1 f7       	brne	.-4      	; 0x1a3a <start_sequence+0x242>
    1a3e:	9f 8b       	std	Y+23, r25	; 0x17
    1a40:	8e 8b       	std	Y+22, r24	; 0x16
    1a42:	8c 89       	ldd	r24, Y+20	; 0x14
    1a44:	9d 89       	ldd	r25, Y+21	; 0x15
		__ticks = 1;
	else if (__tmp > 65535)
	{
		//	__ticks = requested delay in 1/10 ms
		__ticks = (uint16_t) (__ms * 10.0);
		while(__ticks)
    1a46:	01 97       	sbiw	r24, 0x01	; 1
    1a48:	9d 8b       	std	Y+21, r25	; 0x15
    1a4a:	8c 8b       	std	Y+20, r24	; 0x14
    1a4c:	8c 89       	ldd	r24, Y+20	; 0x14
    1a4e:	9d 89       	ldd	r25, Y+21	; 0x15
			__ticks --;
		}
		return;
	}
	else
		__ticks = (uint16_t)__tmp;
    1a50:	89 2b       	or	r24, r25
    1a52:	69 f7       	brne	.-38     	; 0x1a2e <start_sequence+0x236>
    1a54:	14 c0       	rjmp	.+40     	; 0x1a7e <start_sequence+0x286>
    1a56:	68 89       	ldd	r22, Y+16	; 0x10
    1a58:	79 89       	ldd	r23, Y+17	; 0x11
    1a5a:	8a 89       	ldd	r24, Y+18	; 0x12
    1a5c:	9b 89       	ldd	r25, Y+19	; 0x13
    1a5e:	0e 94 c3 17 	call	0x2f86	; 0x2f86 <__fixunssfsi>
    1a62:	dc 01       	movw	r26, r24
    1a64:	cb 01       	movw	r24, r22
    1a66:	9d 8b       	std	Y+21, r25	; 0x15
    1a68:	8c 8b       	std	Y+20, r24	; 0x14
    1a6a:	8c 89       	ldd	r24, Y+20	; 0x14
    1a6c:	9d 89       	ldd	r25, Y+21	; 0x15
    1a6e:	99 8f       	std	Y+25, r25	; 0x19
    1a70:	88 8f       	std	Y+24, r24	; 0x18
    1a72:	88 8d       	ldd	r24, Y+24	; 0x18
	_delay_ms(3000);
	LCD_Clear();	
    1a74:	99 8d       	ldd	r25, Y+25	; 0x19
    1a76:	01 97       	sbiw	r24, 0x01	; 1
	GUI_Logger();
    1a78:	f1 f7       	brne	.-4      	; 0x1a76 <start_sequence+0x27e>
    1a7a:	99 8f       	std	Y+25, r25	; 0x19
}
    1a7c:	88 8f       	std	Y+24, r24	; 0x18
    1a7e:	1b db       	rcall	.-2506   	; 0x10b6 <LCD_Clear>
    1a80:	5f d0       	rcall	.+190    	; 0x1b40 <GUI_Logger>
    1a82:	00 00       	nop
    1a84:	a3 96       	adiw	r28, 0x23	; 35
    1a86:	0f b6       	in	r0, 0x3f	; 63
    1a88:	f8 94       	cli
    1a8a:	de bf       	out	0x3e, r29	; 62
    1a8c:	0f be       	out	0x3f, r0	; 63
    1a8e:	cd bf       	out	0x3d, r28	; 61
    1a90:	df 91       	pop	r29
    1a92:	cf 91       	pop	r28
    1a94:	08 95       	ret

00001a96 <GUI_select>:




void GUI_select(volatile uint8_t sel_gui,volatile uint8_t sel_dia,volatile uint8_t push_select)							   //sel_guide = selx
{
    1a96:	cf 93       	push	r28
    1a98:	df 93       	push	r29
    1a9a:	00 d0       	rcall	.+0      	; 0x1a9c <GUI_select+0x6>
    1a9c:	1f 92       	push	r1
    1a9e:	cd b7       	in	r28, 0x3d	; 61
    1aa0:	de b7       	in	r29, 0x3e	; 62
    1aa2:	89 83       	std	Y+1, r24	; 0x01
    1aa4:	6a 83       	std	Y+2, r22	; 0x02
    1aa6:	4b 83       	std	Y+3, r20	; 0x03
		
	switch(sel_gui)							//je nach selx wird Funktion ausgewaehlt die Menueband oben einfaerbt und darstellt
    1aa8:	89 81       	ldd	r24, Y+1	; 0x01
    1aaa:	88 2f       	mov	r24, r24
    1aac:	90 e0       	ldi	r25, 0x00	; 0
    1aae:	87 30       	cpi	r24, 0x07	; 7
    1ab0:	91 05       	cpc	r25, r1
    1ab2:	41 f0       	breq	.+16     	; 0x1ac4 <GUI_select+0x2e>
    1ab4:	8c 30       	cpi	r24, 0x0C	; 12
    1ab6:	91 05       	cpc	r25, r1
    1ab8:	39 f0       	breq	.+14     	; 0x1ac8 <GUI_select+0x32>
    1aba:	02 97       	sbiw	r24, 0x02	; 2
    1abc:	09 f0       	breq	.+2      	; 0x1ac0 <GUI_select+0x2a>
		break;
		
		
		
		case 7:
		GUI_Kurve();						//Auswahl Seite 2 "Kurve"
    1abe:	39 c0       	rjmp	.+114    	; 0x1b32 <GUI_select+0x9c>
		break;
    1ac0:	3f d0       	rcall	.+126    	; 0x1b40 <GUI_Logger>
		
		
		
		
		case 12:
		GUI_Masse();						//Auswahl Seite 3 "Masse"
    1ac2:	37 c0       	rjmp	.+110    	; 0x1b32 <GUI_select+0x9c>
    1ac4:	5d d0       	rcall	.+186    	; 0x1b80 <GUI_Kurve>
		
		if ((PINA & 0x80) == 0)				//Gesamte if-Schleife: Positionierung der Pfeile in Abhaengigkeit vom Wert push_select
    1ac6:	35 c0       	rjmp	.+106    	; 0x1b32 <GUI_select+0x9c>
    1ac8:	ad d0       	rcall	.+346    	; 0x1c24 <GUI_Masse>
    1aca:	80 e2       	ldi	r24, 0x20	; 32
    1acc:	90 e0       	ldi	r25, 0x00	; 0
    1ace:	fc 01       	movw	r30, r24
		{
			font_invert(1);
    1ad0:	80 81       	ld	r24, Z
			LCD_GotoXY(push_select,3);
    1ad2:	88 23       	and	r24, r24
			LCD_PutChar(0x1E);
    1ad4:	5c f0       	brlt	.+22     	; 0x1aec <GUI_select+0x56>
    1ad6:	81 e0       	ldi	r24, 0x01	; 1
    1ad8:	7a da       	rcall	.-2828   	; 0xfce <font_invert>
			LCD_Update();
    1ada:	8b 81       	ldd	r24, Y+3	; 0x03
    1adc:	63 e0       	ldi	r22, 0x03	; 3
			font_invert(0);
    1ade:	4e de       	rcall	.-868    	; 0x177c <LCD_GotoXY>
    1ae0:	8e e1       	ldi	r24, 0x1E	; 30
    1ae2:	e3 dc       	rcall	.-1594   	; 0x14aa <LCD_PutChar>
			LCD_PutChar(0x1E);
			LCD_GotoXY(push_select, 5);
			LCD_PutChar(0x1F);
			LCD_Update();
		}
		break;
    1ae4:	1a db       	rcall	.-2508   	; 0x111a <LCD_Update>
			LCD_PutChar(0x1E);
			LCD_Update();
			font_invert(0);
		}
		
		else if ((PINA & 0x40) == 0)
    1ae6:	80 e0       	ldi	r24, 0x00	; 0
    1ae8:	72 da       	rcall	.-2844   	; 0xfce <font_invert>
    1aea:	22 c0       	rjmp	.+68     	; 0x1b30 <GUI_select+0x9a>
    1aec:	80 e2       	ldi	r24, 0x20	; 32
    1aee:	90 e0       	ldi	r25, 0x00	; 0
    1af0:	fc 01       	movw	r30, r24
		{
			font_invert(1);
    1af2:	80 81       	ld	r24, Z
    1af4:	88 2f       	mov	r24, r24
			LCD_GotoXY(push_select, 5);
    1af6:	90 e0       	ldi	r25, 0x00	; 0
    1af8:	80 74       	andi	r24, 0x40	; 64
			LCD_PutChar(0x1F);
    1afa:	99 27       	eor	r25, r25
			LCD_Update();
    1afc:	89 2b       	or	r24, r25
			font_invert(0);
		}
		
		else
		{
			font_invert(0);
    1afe:	59 f4       	brne	.+22     	; 0x1b16 <GUI_select+0x80>
    1b00:	81 e0       	ldi	r24, 0x01	; 1
    1b02:	65 da       	rcall	.-2870   	; 0xfce <font_invert>
			LCD_GotoXY(push_select,3);
    1b04:	8b 81       	ldd	r24, Y+3	; 0x03
    1b06:	65 e0       	ldi	r22, 0x05	; 5
    1b08:	39 de       	rcall	.-910    	; 0x177c <LCD_GotoXY>
    1b0a:	8f e1       	ldi	r24, 0x1F	; 31
			LCD_PutChar(0x1E);
    1b0c:	ce dc       	rcall	.-1636   	; 0x14aa <LCD_PutChar>
    1b0e:	05 db       	rcall	.-2550   	; 0x111a <LCD_Update>
    1b10:	80 e0       	ldi	r24, 0x00	; 0
			LCD_GotoXY(push_select, 5);
    1b12:	5d da       	rcall	.-2886   	; 0xfce <font_invert>
    1b14:	0d c0       	rjmp	.+26     	; 0x1b30 <GUI_select+0x9a>
    1b16:	80 e0       	ldi	r24, 0x00	; 0
    1b18:	5a da       	rcall	.-2892   	; 0xfce <font_invert>
			LCD_PutChar(0x1F);
    1b1a:	8b 81       	ldd	r24, Y+3	; 0x03
    1b1c:	63 e0       	ldi	r22, 0x03	; 3
    1b1e:	2e de       	rcall	.-932    	; 0x177c <LCD_GotoXY>
			LCD_Update();
    1b20:	8e e1       	ldi	r24, 0x1E	; 30
    1b22:	c3 dc       	rcall	.-1658   	; 0x14aa <LCD_PutChar>
		}
		break;
    1b24:	8b 81       	ldd	r24, Y+3	; 0x03
		
		default:
		break;
	}
}
    1b26:	65 e0       	ldi	r22, 0x05	; 5
    1b28:	29 de       	rcall	.-942    	; 0x177c <LCD_GotoXY>
    1b2a:	8f e1       	ldi	r24, 0x1F	; 31
    1b2c:	be dc       	rcall	.-1668   	; 0x14aa <LCD_PutChar>
    1b2e:	f5 da       	rcall	.-2582   	; 0x111a <LCD_Update>
    1b30:	00 00       	nop
    1b32:	00 00       	nop
    1b34:	0f 90       	pop	r0
    1b36:	0f 90       	pop	r0
    1b38:	0f 90       	pop	r0
    1b3a:	df 91       	pop	r29
    1b3c:	cf 91       	pop	r28
    1b3e:	08 95       	ret

00001b40 <GUI_Logger>:




void GUI_Logger(void)						//Ausgabe Menüband Seite 1 bzw. Logger
{
    1b40:	cf 93       	push	r28
    1b42:	df 93       	push	r29
    1b44:	cd b7       	in	r28, 0x3d	; 61
	//PORTB &= ~(1<<PINB0);
	//PORTB |= (1<<PINB1);
	
	LCD_Clear();
    1b46:	de b7       	in	r29, 0x3e	; 62
	LCD_GotoXY(0,0);
    1b48:	b6 da       	rcall	.-2708   	; 0x10b6 <LCD_Clear>
    1b4a:	60 e0       	ldi	r22, 0x00	; 0
	font_invert(1);	
    1b4c:	80 e0       	ldi	r24, 0x00	; 0
    1b4e:	16 de       	rcall	.-980    	; 0x177c <LCD_GotoXY>
	LCD_PutString_P(PSTR("Logger"));	
    1b50:	81 e0       	ldi	r24, 0x01	; 1
    1b52:	3d da       	rcall	.-2950   	; 0xfce <font_invert>
	font_invert(0);
    1b54:	8e ef       	ldi	r24, 0xFE	; 254
	LCD_GotoXY(8,0);
    1b56:	9a e0       	ldi	r25, 0x0A	; 10
    1b58:	c4 dd       	rcall	.-1144   	; 0x16e2 <LCD_PutString_P>
	LCD_PutString_P(PSTR("Kurve"));
    1b5a:	80 e0       	ldi	r24, 0x00	; 0
    1b5c:	38 da       	rcall	.-2960   	; 0xfce <font_invert>
	LCD_GotoXY(15,0);
    1b5e:	60 e0       	ldi	r22, 0x00	; 0
    1b60:	88 e0       	ldi	r24, 0x08	; 8
    1b62:	0c de       	rcall	.-1000   	; 0x177c <LCD_GotoXY>
    1b64:	85 e0       	ldi	r24, 0x05	; 5
	LCD_PutString_P(PSTR("Masse"));	
    1b66:	9b e0       	ldi	r25, 0x0B	; 11
    1b68:	bc dd       	rcall	.-1160   	; 0x16e2 <LCD_PutString_P>
    1b6a:	60 e0       	ldi	r22, 0x00	; 0
    1b6c:	8f e0       	ldi	r24, 0x0F	; 15
	
	LCD_Update();	
    1b6e:	06 de       	rcall	.-1012   	; 0x177c <LCD_GotoXY>
    1b70:	8b e0       	ldi	r24, 0x0B	; 11
}
    1b72:	9b e0       	ldi	r25, 0x0B	; 11
    1b74:	b6 dd       	rcall	.-1172   	; 0x16e2 <LCD_PutString_P>
    1b76:	d1 da       	rcall	.-2654   	; 0x111a <LCD_Update>
    1b78:	00 00       	nop
    1b7a:	df 91       	pop	r29
    1b7c:	cf 91       	pop	r28
    1b7e:	08 95       	ret

00001b80 <GUI_Kurve>:


void GUI_Kurve(void)						//Ausgabe Menüband + Graphenstruktur Seite 2 bzw. Kurve
{
    1b80:	0f 93       	push	r16
    1b82:	cf 93       	push	r28
    1b84:	df 93       	push	r29
    1b86:	cd b7       	in	r28, 0x3d	; 61
	//PORTB &= ~(1<<PINB1);
	//PORTB |= ((1<<PINB2)|(1<<PINB0));
	
	LCD_Clear();
    1b88:	de b7       	in	r29, 0x3e	; 62
	LCD_GotoXY(0,0);
    1b8a:	95 da       	rcall	.-2774   	; 0x10b6 <LCD_Clear>
    1b8c:	60 e0       	ldi	r22, 0x00	; 0
	LCD_PutString_P(PSTR("Logger"));
    1b8e:	80 e0       	ldi	r24, 0x00	; 0
    1b90:	f5 dd       	rcall	.-1046   	; 0x177c <LCD_GotoXY>
	LCD_GotoXY(8,0);
    1b92:	81 e1       	ldi	r24, 0x11	; 17
    1b94:	9b e0       	ldi	r25, 0x0B	; 11
	font_invert(1);
    1b96:	a5 dd       	rcall	.-1206   	; 0x16e2 <LCD_PutString_P>
	LCD_PutString_P(PSTR("Kurve"));
    1b98:	60 e0       	ldi	r22, 0x00	; 0
    1b9a:	88 e0       	ldi	r24, 0x08	; 8
    1b9c:	ef dd       	rcall	.-1058   	; 0x177c <LCD_GotoXY>
	font_invert(0);
    1b9e:	81 e0       	ldi	r24, 0x01	; 1
    1ba0:	16 da       	rcall	.-3028   	; 0xfce <font_invert>
	LCD_GotoXY(15,0);
    1ba2:	88 e1       	ldi	r24, 0x18	; 24
    1ba4:	9b e0       	ldi	r25, 0x0B	; 11
	LCD_PutString_P(PSTR("Masse"));	
    1ba6:	9d dd       	rcall	.-1222   	; 0x16e2 <LCD_PutString_P>
    1ba8:	80 e0       	ldi	r24, 0x00	; 0
	LCD_GotoXY(20,7);
    1baa:	11 da       	rcall	.-3038   	; 0xfce <font_invert>
    1bac:	60 e0       	ldi	r22, 0x00	; 0
    1bae:	8f e0       	ldi	r24, 0x0F	; 15
	LCD_PutString_P(PSTR("v"));
    1bb0:	e5 dd       	rcall	.-1078   	; 0x177c <LCD_GotoXY>
    1bb2:	8e e1       	ldi	r24, 0x1E	; 30
    1bb4:	9b e0       	ldi	r25, 0x0B	; 11
	LCD_GotoXY(0,2);
    1bb6:	95 dd       	rcall	.-1238   	; 0x16e2 <LCD_PutString_P>
    1bb8:	67 e0       	ldi	r22, 0x07	; 7
    1bba:	84 e1       	ldi	r24, 0x14	; 20
	LCD_PutString_P(PSTR("P"));
    1bbc:	df dd       	rcall	.-1090   	; 0x177c <LCD_GotoXY>
    1bbe:	84 e2       	ldi	r24, 0x24	; 36
    1bc0:	9b e0       	ldi	r25, 0x0B	; 11
	LCD_DrawLine(12,60,120,60,1);			//v-/X-Achse
    1bc2:	8f dd       	rcall	.-1250   	; 0x16e2 <LCD_PutString_P>
    1bc4:	62 e0       	ldi	r22, 0x02	; 2
    1bc6:	80 e0       	ldi	r24, 0x00	; 0
    1bc8:	d9 dd       	rcall	.-1102   	; 0x177c <LCD_GotoXY>
    1bca:	86 e2       	ldi	r24, 0x26	; 38
    1bcc:	9b e0       	ldi	r25, 0x0B	; 11
	LCD_DrawLine(12,10,12,60,1);			//P-/Y-Achse
    1bce:	89 dd       	rcall	.-1262   	; 0x16e2 <LCD_PutString_P>
    1bd0:	01 e0       	ldi	r16, 0x01	; 1
    1bd2:	2c e3       	ldi	r18, 0x3C	; 60
    1bd4:	48 e7       	ldi	r20, 0x78	; 120
    1bd6:	6c e3       	ldi	r22, 0x3C	; 60
    1bd8:	8c e0       	ldi	r24, 0x0C	; 12
	LCD_DrawLine(10,13,12,10,1);			//Pfeillinie
    1bda:	d1 db       	rcall	.-2142   	; 0x137e <LCD_DrawLine>
    1bdc:	01 e0       	ldi	r16, 0x01	; 1
    1bde:	2c e3       	ldi	r18, 0x3C	; 60
    1be0:	4c e0       	ldi	r20, 0x0C	; 12
    1be2:	6a e0       	ldi	r22, 0x0A	; 10
    1be4:	8c e0       	ldi	r24, 0x0C	; 12
	LCD_DrawLine(14,13,12,10,1);			//Pfeillinie
    1be6:	cb db       	rcall	.-2154   	; 0x137e <LCD_DrawLine>
    1be8:	01 e0       	ldi	r16, 0x01	; 1
    1bea:	2a e0       	ldi	r18, 0x0A	; 10
    1bec:	4c e0       	ldi	r20, 0x0C	; 12
    1bee:	6d e0       	ldi	r22, 0x0D	; 13
	LCD_DrawLine(117,58,120,60,1);			//Pfeillinie
    1bf0:	8a e0       	ldi	r24, 0x0A	; 10
    1bf2:	c5 db       	rcall	.-2166   	; 0x137e <LCD_DrawLine>
    1bf4:	01 e0       	ldi	r16, 0x01	; 1
    1bf6:	2a e0       	ldi	r18, 0x0A	; 10
    1bf8:	4c e0       	ldi	r20, 0x0C	; 12
    1bfa:	6d e0       	ldi	r22, 0x0D	; 13
    1bfc:	8e e0       	ldi	r24, 0x0E	; 14
	LCD_DrawLine(117,62,120,60,1);			//Pfeillinie
    1bfe:	bf db       	rcall	.-2178   	; 0x137e <LCD_DrawLine>
    1c00:	01 e0       	ldi	r16, 0x01	; 1
    1c02:	2c e3       	ldi	r18, 0x3C	; 60
    1c04:	48 e7       	ldi	r20, 0x78	; 120
    1c06:	6a e3       	ldi	r22, 0x3A	; 58
    1c08:	85 e7       	ldi	r24, 0x75	; 117
    1c0a:	b9 db       	rcall	.-2190   	; 0x137e <LCD_DrawLine>
	LCD_Update();
    1c0c:	01 e0       	ldi	r16, 0x01	; 1
    1c0e:	2c e3       	ldi	r18, 0x3C	; 60
}
    1c10:	48 e7       	ldi	r20, 0x78	; 120
    1c12:	6e e3       	ldi	r22, 0x3E	; 62
    1c14:	85 e7       	ldi	r24, 0x75	; 117
    1c16:	b3 db       	rcall	.-2202   	; 0x137e <LCD_DrawLine>
    1c18:	80 da       	rcall	.-2816   	; 0x111a <LCD_Update>
    1c1a:	00 00       	nop
    1c1c:	df 91       	pop	r29
    1c1e:	cf 91       	pop	r28
    1c20:	0f 91       	pop	r16
    1c22:	08 95       	ret

00001c24 <GUI_Masse>:

void GUI_Masse(void)						//Ausgabe Menüband Seite 3 bzw. Masse
{
    1c24:	cf 93       	push	r28
    1c26:	df 93       	push	r29
    1c28:	cd b7       	in	r28, 0x3d	; 61
	//PORTB &= ~(1<<PINB2);
	//PORTB |= (1<<PINB1);
	
	LCD_Clear();
    1c2a:	de b7       	in	r29, 0x3e	; 62
	LCD_GotoXY(0,0);
    1c2c:	44 da       	rcall	.-2936   	; 0x10b6 <LCD_Clear>
    1c2e:	60 e0       	ldi	r22, 0x00	; 0
	LCD_PutString_P(PSTR("Logger"));
    1c30:	80 e0       	ldi	r24, 0x00	; 0
    1c32:	a4 dd       	rcall	.-1208   	; 0x177c <LCD_GotoXY>
	LCD_GotoXY(8,0);
    1c34:	88 e2       	ldi	r24, 0x28	; 40
    1c36:	9b e0       	ldi	r25, 0x0B	; 11
    1c38:	54 dd       	rcall	.-1368   	; 0x16e2 <LCD_PutString_P>
	LCD_PutString_P(PSTR("Kurve"));
    1c3a:	60 e0       	ldi	r22, 0x00	; 0
    1c3c:	88 e0       	ldi	r24, 0x08	; 8
	LCD_GotoXY(15,0);
    1c3e:	9e dd       	rcall	.-1220   	; 0x177c <LCD_GotoXY>
    1c40:	8f e2       	ldi	r24, 0x2F	; 47
	font_invert(1);
    1c42:	9b e0       	ldi	r25, 0x0B	; 11
	LCD_PutString_P(PSTR("Masse"));
    1c44:	4e dd       	rcall	.-1380   	; 0x16e2 <LCD_PutString_P>
    1c46:	60 e0       	ldi	r22, 0x00	; 0
	font_invert(0);
    1c48:	8f e0       	ldi	r24, 0x0F	; 15
    1c4a:	98 dd       	rcall	.-1232   	; 0x177c <LCD_GotoXY>
    1c4c:	81 e0       	ldi	r24, 0x01	; 1
	
	LCD_GotoXY(10,4);
    1c4e:	bf d9       	rcall	.-3202   	; 0xfce <font_invert>
    1c50:	85 e3       	ldi	r24, 0x35	; 53
    1c52:	9b e0       	ldi	r25, 0x0B	; 11
    1c54:	46 dd       	rcall	.-1396   	; 0x16e2 <LCD_PutString_P>
	LCD_PutString_P(PSTR("in kg"));
    1c56:	80 e0       	ldi	r24, 0x00	; 0
    1c58:	ba d9       	rcall	.-3212   	; 0xfce <font_invert>
    1c5a:	64 e0       	ldi	r22, 0x04	; 4
    1c5c:	8a e0       	ldi	r24, 0x0A	; 10
}
    1c5e:	8e dd       	rcall	.-1252   	; 0x177c <LCD_GotoXY>
    1c60:	8b e3       	ldi	r24, 0x3B	; 59
    1c62:	9b e0       	ldi	r25, 0x0B	; 11
    1c64:	3e dd       	rcall	.-1412   	; 0x16e2 <LCD_PutString_P>
    1c66:	00 00       	nop
    1c68:	df 91       	pop	r29
    1c6a:	cf 91       	pop	r28
    1c6c:	08 95       	ret

00001c6e <SPI_MasterInit>:
// Prevent Double Initialization
unsigned short SPI_flag = 0;

void
SPI_MasterInit (void)
{
    1c6e:	cf 93       	push	r28
    1c70:	df 93       	push	r29
    1c72:	cd b7       	in	r28, 0x3d	; 61
    1c74:	de b7       	in	r29, 0x3e	; 62
  /* Check if already initialized */
  if (!(SPI_flag & 1))
    1c76:	80 91 1a 01 	lds	r24, 0x011A	; 0x80011a <SPI_flag>
    1c7a:	90 91 1b 01 	lds	r25, 0x011B	; 0x80011b <SPI_flag+0x1>
    1c7e:	81 70       	andi	r24, 0x01	; 1
    1c80:	99 27       	eor	r25, r25
    1c82:	89 2b       	or	r24, r25
    1c84:	c9 f4       	brne	.+50     	; 0x1cb8 <SPI_MasterInit+0x4a>
    {
      /* Set MOSI and SCK output */
      DDRB |= (1<<PB5)|(1<<PB7);
    1c86:	84 e2       	ldi	r24, 0x24	; 36
    1c88:	90 e0       	ldi	r25, 0x00	; 0
    1c8a:	24 e2       	ldi	r18, 0x24	; 36
    1c8c:	30 e0       	ldi	r19, 0x00	; 0
    1c8e:	f9 01       	movw	r30, r18
    1c90:	20 81       	ld	r18, Z
    1c92:	20 6a       	ori	r18, 0xA0	; 160
    1c94:	fc 01       	movw	r30, r24
    1c96:	20 83       	st	Z, r18
      
      /* Enable SPI, Master */
      SPCR = (1<<SPE)|(1<<MSTR);
    1c98:	8c e4       	ldi	r24, 0x4C	; 76
    1c9a:	90 e0       	ldi	r25, 0x00	; 0
    1c9c:	20 e5       	ldi	r18, 0x50	; 80
    1c9e:	fc 01       	movw	r30, r24
    1ca0:	20 83       	st	Z, r18
      
      /* Set Double SPI Speed Bit, SPI clock will be fck/2 */
      SPSR = (1<<SPI2X);
    1ca2:	8d e4       	ldi	r24, 0x4D	; 77
    1ca4:	90 e0       	ldi	r25, 0x00	; 0
    1ca6:	21 e0       	ldi	r18, 0x01	; 1
    1ca8:	fc 01       	movw	r30, r24
    1caa:	20 83       	st	Z, r18
      
      /* Set SPI Init Flag */
      SPI_flag = 1;
    1cac:	81 e0       	ldi	r24, 0x01	; 1
    1cae:	90 e0       	ldi	r25, 0x00	; 0
    1cb0:	90 93 1b 01 	sts	0x011B, r25	; 0x80011b <SPI_flag+0x1>
    1cb4:	80 93 1a 01 	sts	0x011A, r24	; 0x80011a <SPI_flag>
    }
}
    1cb8:	00 00       	nop
    1cba:	df 91       	pop	r29
    1cbc:	cf 91       	pop	r28
    1cbe:	08 95       	ret

00001cc0 <SPI_MasterTransfer>:

void
SPI_MasterTransfer (unsigned char c)
{
    1cc0:	cf 93       	push	r28
    1cc2:	df 93       	push	r29
    1cc4:	1f 92       	push	r1
    1cc6:	cd b7       	in	r28, 0x3d	; 61
    1cc8:	de b7       	in	r29, 0x3e	; 62
    1cca:	89 83       	std	Y+1, r24	; 0x01
  /* Start transmission */
  SPDR = c;
    1ccc:	8e e4       	ldi	r24, 0x4E	; 78
    1cce:	90 e0       	ldi	r25, 0x00	; 0
    1cd0:	29 81       	ldd	r18, Y+1	; 0x01
    1cd2:	fc 01       	movw	r30, r24
    1cd4:	20 83       	st	Z, r18
  
  /* Wait for transmission complete */
  while (!(SPSR & (1<<SPIF)));
    1cd6:	00 00       	nop
    1cd8:	8d e4       	ldi	r24, 0x4D	; 77
    1cda:	90 e0       	ldi	r25, 0x00	; 0
    1cdc:	fc 01       	movw	r30, r24
    1cde:	80 81       	ld	r24, Z
    1ce0:	88 23       	and	r24, r24
    1ce2:	d4 f7       	brge	.-12     	; 0x1cd8 <SPI_MasterTransfer+0x18>
}
    1ce4:	00 00       	nop
    1ce6:	0f 90       	pop	r0
    1ce8:	df 91       	pop	r29
    1cea:	cf 91       	pop	r28
    1cec:	08 95       	ret

00001cee <TWI_Init>:

volatile uint8_t twi_timeout = 0x00;

void
TWI_Init (void)
{
    1cee:	cf 93       	push	r28
    1cf0:	df 93       	push	r29
    1cf2:	cd b7       	in	r28, 0x3d	; 61
    1cf4:	de b7       	in	r29, 0x3e	; 62
  // Port Setup
  DDRC &= ~((1 << PC0)|(1 << PC1));
    1cf6:	87 e2       	ldi	r24, 0x27	; 39
    1cf8:	90 e0       	ldi	r25, 0x00	; 0
    1cfa:	27 e2       	ldi	r18, 0x27	; 39
    1cfc:	30 e0       	ldi	r19, 0x00	; 0
    1cfe:	f9 01       	movw	r30, r18
    1d00:	20 81       	ld	r18, Z
    1d02:	2c 7f       	andi	r18, 0xFC	; 252
    1d04:	fc 01       	movw	r30, r24
    1d06:	20 83       	st	Z, r18
  PORTC |= (1 << PC0)|(1 << PC1);
    1d08:	88 e2       	ldi	r24, 0x28	; 40
    1d0a:	90 e0       	ldi	r25, 0x00	; 0
    1d0c:	28 e2       	ldi	r18, 0x28	; 40
    1d0e:	30 e0       	ldi	r19, 0x00	; 0
    1d10:	f9 01       	movw	r30, r18
    1d12:	20 81       	ld	r18, Z
    1d14:	23 60       	ori	r18, 0x03	; 3
    1d16:	fc 01       	movw	r30, r24
    1d18:	20 83       	st	Z, r18
  
  // Setup TWI Speed to 400kHZ (TWPS = 1)
  TWBR = 3;
    1d1a:	88 eb       	ldi	r24, 0xB8	; 184
    1d1c:	90 e0       	ldi	r25, 0x00	; 0
    1d1e:	23 e0       	ldi	r18, 0x03	; 3
    1d20:	fc 01       	movw	r30, r24
    1d22:	20 83       	st	Z, r18
  
  // Using TIMER2 to detect timeout
  TCCR2B = (7 << CS20);
    1d24:	81 eb       	ldi	r24, 0xB1	; 177
    1d26:	90 e0       	ldi	r25, 0x00	; 0
    1d28:	27 e0       	ldi	r18, 0x07	; 7
    1d2a:	fc 01       	movw	r30, r24
    1d2c:	20 83       	st	Z, r18
  TIMSK2 = (1 << OCIE2A);
    1d2e:	80 e7       	ldi	r24, 0x70	; 112
    1d30:	90 e0       	ldi	r25, 0x00	; 0
    1d32:	22 e0       	ldi	r18, 0x02	; 2
    1d34:	fc 01       	movw	r30, r24
    1d36:	20 83       	st	Z, r18
  
  OCR2A = 125;
    1d38:	83 eb       	ldi	r24, 0xB3	; 179
    1d3a:	90 e0       	ldi	r25, 0x00	; 0
    1d3c:	2d e7       	ldi	r18, 0x7D	; 125
    1d3e:	fc 01       	movw	r30, r24
    1d40:	20 83       	st	Z, r18
  
  // Interrupts REQUIRED!
  sei();
    1d42:	78 94       	sei
}
    1d44:	00 00       	nop
    1d46:	df 91       	pop	r29
    1d48:	cf 91       	pop	r28
    1d4a:	08 95       	ret

00001d4c <TWI_Start>:

int16_t
TWI_Start (void)
{
    1d4c:	cf 93       	push	r28
    1d4e:	df 93       	push	r29
    1d50:	cd b7       	in	r28, 0x3d	; 61
    1d52:	de b7       	in	r29, 0x3e	; 62
  twi_timeout = 10;
    1d54:	8a e0       	ldi	r24, 0x0A	; 10
    1d56:	80 93 1c 01 	sts	0x011C, r24	; 0x80011c <twi_timeout>
  
  TWCR = (1 << TWINT)|(1 << TWSTA)|(1 << TWEN);
    1d5a:	8c eb       	ldi	r24, 0xBC	; 188
    1d5c:	90 e0       	ldi	r25, 0x00	; 0
    1d5e:	24 ea       	ldi	r18, 0xA4	; 164
    1d60:	fc 01       	movw	r30, r24
    1d62:	20 83       	st	Z, r18
  while ((twi_timeout) && (!(TWCR & (1 << TWINT))));
    1d64:	00 00       	nop
    1d66:	80 91 1c 01 	lds	r24, 0x011C	; 0x80011c <twi_timeout>
    1d6a:	88 23       	and	r24, r24
    1d6c:	31 f0       	breq	.+12     	; 0x1d7a <TWI_Start+0x2e>
    1d6e:	8c eb       	ldi	r24, 0xBC	; 188
    1d70:	90 e0       	ldi	r25, 0x00	; 0
    1d72:	fc 01       	movw	r30, r24
    1d74:	80 81       	ld	r24, Z
    1d76:	88 23       	and	r24, r24
    1d78:	b4 f7       	brge	.-20     	; 0x1d66 <TWI_Start+0x1a>
  
  if (twi_timeout)
    1d7a:	80 91 1c 01 	lds	r24, 0x011C	; 0x80011c <twi_timeout>
    1d7e:	88 23       	and	r24, r24
    1d80:	49 f0       	breq	.+18     	; 0x1d94 <TWI_Start+0x48>
    return (int16_t) (TWSR & 0xf8);
    1d82:	89 eb       	ldi	r24, 0xB9	; 185
    1d84:	90 e0       	ldi	r25, 0x00	; 0
    1d86:	fc 01       	movw	r30, r24
    1d88:	80 81       	ld	r24, Z
    1d8a:	88 2f       	mov	r24, r24
    1d8c:	90 e0       	ldi	r25, 0x00	; 0
    1d8e:	88 7f       	andi	r24, 0xF8	; 248
    1d90:	99 27       	eor	r25, r25
    1d92:	02 c0       	rjmp	.+4      	; 0x1d98 <TWI_Start+0x4c>
  else
    return -1;
    1d94:	8f ef       	ldi	r24, 0xFF	; 255
    1d96:	9f ef       	ldi	r25, 0xFF	; 255
}
    1d98:	df 91       	pop	r29
    1d9a:	cf 91       	pop	r28
    1d9c:	08 95       	ret

00001d9e <TWI_Address_RW>:

int16_t
TWI_Address_RW (uint8_t address)
{
    1d9e:	cf 93       	push	r28
    1da0:	df 93       	push	r29
    1da2:	1f 92       	push	r1
    1da4:	cd b7       	in	r28, 0x3d	; 61
    1da6:	de b7       	in	r29, 0x3e	; 62
    1da8:	89 83       	std	Y+1, r24	; 0x01
  twi_timeout = 10;
    1daa:	8a e0       	ldi	r24, 0x0A	; 10
    1dac:	80 93 1c 01 	sts	0x011C, r24	; 0x80011c <twi_timeout>
  
  TWDR = address;
    1db0:	8b eb       	ldi	r24, 0xBB	; 187
    1db2:	90 e0       	ldi	r25, 0x00	; 0
    1db4:	29 81       	ldd	r18, Y+1	; 0x01
    1db6:	fc 01       	movw	r30, r24
    1db8:	20 83       	st	Z, r18
  TWCR = (1 << TWINT)|(1 << TWEN);
    1dba:	8c eb       	ldi	r24, 0xBC	; 188
    1dbc:	90 e0       	ldi	r25, 0x00	; 0
    1dbe:	24 e8       	ldi	r18, 0x84	; 132
    1dc0:	fc 01       	movw	r30, r24
    1dc2:	20 83       	st	Z, r18
  while ((twi_timeout) && (!(TWCR & (1 << TWINT))));
    1dc4:	00 00       	nop
    1dc6:	80 91 1c 01 	lds	r24, 0x011C	; 0x80011c <twi_timeout>
    1dca:	88 23       	and	r24, r24
    1dcc:	31 f0       	breq	.+12     	; 0x1dda <TWI_Address_RW+0x3c>
    1dce:	8c eb       	ldi	r24, 0xBC	; 188
    1dd0:	90 e0       	ldi	r25, 0x00	; 0
    1dd2:	fc 01       	movw	r30, r24
    1dd4:	80 81       	ld	r24, Z
    1dd6:	88 23       	and	r24, r24
    1dd8:	b4 f7       	brge	.-20     	; 0x1dc6 <TWI_Address_RW+0x28>
  
  if (twi_timeout)
    1dda:	80 91 1c 01 	lds	r24, 0x011C	; 0x80011c <twi_timeout>
    1dde:	88 23       	and	r24, r24
    1de0:	49 f0       	breq	.+18     	; 0x1df4 <TWI_Address_RW+0x56>
    return (int16_t) (TWSR & 0xf8);
    1de2:	89 eb       	ldi	r24, 0xB9	; 185
    1de4:	90 e0       	ldi	r25, 0x00	; 0
    1de6:	fc 01       	movw	r30, r24
    1de8:	80 81       	ld	r24, Z
    1dea:	88 2f       	mov	r24, r24
    1dec:	90 e0       	ldi	r25, 0x00	; 0
    1dee:	88 7f       	andi	r24, 0xF8	; 248
    1df0:	99 27       	eor	r25, r25
    1df2:	02 c0       	rjmp	.+4      	; 0x1df8 <TWI_Address_RW+0x5a>
  else
    return -1;
    1df4:	8f ef       	ldi	r24, 0xFF	; 255
    1df6:	9f ef       	ldi	r25, 0xFF	; 255
}
    1df8:	0f 90       	pop	r0
    1dfa:	df 91       	pop	r29
    1dfc:	cf 91       	pop	r28
    1dfe:	08 95       	ret

00001e00 <TWI_Write>:

int16_t
TWI_Write (uint8_t data)
{
    1e00:	cf 93       	push	r28
    1e02:	df 93       	push	r29
    1e04:	1f 92       	push	r1
    1e06:	cd b7       	in	r28, 0x3d	; 61
    1e08:	de b7       	in	r29, 0x3e	; 62
    1e0a:	89 83       	std	Y+1, r24	; 0x01
  twi_timeout = 10;
    1e0c:	8a e0       	ldi	r24, 0x0A	; 10
    1e0e:	80 93 1c 01 	sts	0x011C, r24	; 0x80011c <twi_timeout>
  
  TWDR = data;
    1e12:	8b eb       	ldi	r24, 0xBB	; 187
    1e14:	90 e0       	ldi	r25, 0x00	; 0
    1e16:	29 81       	ldd	r18, Y+1	; 0x01
    1e18:	fc 01       	movw	r30, r24
    1e1a:	20 83       	st	Z, r18
  TWCR = (1 << TWINT)|(1 << TWEN);
    1e1c:	8c eb       	ldi	r24, 0xBC	; 188
    1e1e:	90 e0       	ldi	r25, 0x00	; 0
    1e20:	24 e8       	ldi	r18, 0x84	; 132
    1e22:	fc 01       	movw	r30, r24
    1e24:	20 83       	st	Z, r18
  while ((twi_timeout) && (!(TWCR & (1 << TWINT))));
    1e26:	00 00       	nop
    1e28:	80 91 1c 01 	lds	r24, 0x011C	; 0x80011c <twi_timeout>
    1e2c:	88 23       	and	r24, r24
    1e2e:	31 f0       	breq	.+12     	; 0x1e3c <TWI_Write+0x3c>
    1e30:	8c eb       	ldi	r24, 0xBC	; 188
    1e32:	90 e0       	ldi	r25, 0x00	; 0
    1e34:	fc 01       	movw	r30, r24
    1e36:	80 81       	ld	r24, Z
    1e38:	88 23       	and	r24, r24
    1e3a:	b4 f7       	brge	.-20     	; 0x1e28 <TWI_Write+0x28>
  
  if (twi_timeout)
    1e3c:	80 91 1c 01 	lds	r24, 0x011C	; 0x80011c <twi_timeout>
    1e40:	88 23       	and	r24, r24
    1e42:	49 f0       	breq	.+18     	; 0x1e56 <TWI_Write+0x56>
    return (int16_t) (TWSR & 0xf8);
    1e44:	89 eb       	ldi	r24, 0xB9	; 185
    1e46:	90 e0       	ldi	r25, 0x00	; 0
    1e48:	fc 01       	movw	r30, r24
    1e4a:	80 81       	ld	r24, Z
    1e4c:	88 2f       	mov	r24, r24
    1e4e:	90 e0       	ldi	r25, 0x00	; 0
    1e50:	88 7f       	andi	r24, 0xF8	; 248
    1e52:	99 27       	eor	r25, r25
    1e54:	02 c0       	rjmp	.+4      	; 0x1e5a <TWI_Write+0x5a>
  else
    return -1;
    1e56:	8f ef       	ldi	r24, 0xFF	; 255
    1e58:	9f ef       	ldi	r25, 0xFF	; 255
}
    1e5a:	0f 90       	pop	r0
    1e5c:	df 91       	pop	r29
    1e5e:	cf 91       	pop	r28
    1e60:	08 95       	ret

00001e62 <TWI_Stop>:

void
TWI_Stop (void)
{
    1e62:	cf 93       	push	r28
    1e64:	df 93       	push	r29
    1e66:	cd b7       	in	r28, 0x3d	; 61
    1e68:	de b7       	in	r29, 0x3e	; 62
  twi_timeout = 10;
    1e6a:	8a e0       	ldi	r24, 0x0A	; 10
    1e6c:	80 93 1c 01 	sts	0x011C, r24	; 0x80011c <twi_timeout>
  
  TWCR = (1 << TWINT)|(1 << TWEN)|(1 << TWSTO);
    1e70:	8c eb       	ldi	r24, 0xBC	; 188
    1e72:	90 e0       	ldi	r25, 0x00	; 0
    1e74:	24 e9       	ldi	r18, 0x94	; 148
    1e76:	fc 01       	movw	r30, r24
    1e78:	20 83       	st	Z, r18
}
    1e7a:	00 00       	nop
    1e7c:	df 91       	pop	r29
    1e7e:	cf 91       	pop	r28
    1e80:	08 95       	ret

00001e82 <__vector_9>:

// ISR will be called every 8ms to decrease twi_timeout if > 0
ISR (TIMER2_COMPA_vect)
{
    1e82:	1f 92       	push	r1
    1e84:	0f 92       	push	r0
    1e86:	00 90 5f 00 	lds	r0, 0x005F	; 0x80005f <__TEXT_REGION_LENGTH__+0x7e005f>
    1e8a:	0f 92       	push	r0
    1e8c:	11 24       	eor	r1, r1
    1e8e:	00 90 5b 00 	lds	r0, 0x005B	; 0x80005b <__TEXT_REGION_LENGTH__+0x7e005b>
    1e92:	0f 92       	push	r0
    1e94:	2f 93       	push	r18
    1e96:	3f 93       	push	r19
    1e98:	8f 93       	push	r24
    1e9a:	9f 93       	push	r25
    1e9c:	ef 93       	push	r30
    1e9e:	ff 93       	push	r31
    1ea0:	cf 93       	push	r28
    1ea2:	df 93       	push	r29
    1ea4:	cd b7       	in	r28, 0x3d	; 61
    1ea6:	de b7       	in	r29, 0x3e	; 62
  OCR2A += 125;
    1ea8:	83 eb       	ldi	r24, 0xB3	; 179
    1eaa:	90 e0       	ldi	r25, 0x00	; 0
    1eac:	23 eb       	ldi	r18, 0xB3	; 179
    1eae:	30 e0       	ldi	r19, 0x00	; 0
    1eb0:	f9 01       	movw	r30, r18
    1eb2:	20 81       	ld	r18, Z
    1eb4:	23 58       	subi	r18, 0x83	; 131
    1eb6:	fc 01       	movw	r30, r24
    1eb8:	20 83       	st	Z, r18

  if (twi_timeout)
    1eba:	80 91 1c 01 	lds	r24, 0x011C	; 0x80011c <twi_timeout>
    1ebe:	88 23       	and	r24, r24
    1ec0:	29 f0       	breq	.+10     	; 0x1ecc <__vector_9+0x4a>
    twi_timeout--;
    1ec2:	80 91 1c 01 	lds	r24, 0x011C	; 0x80011c <twi_timeout>
    1ec6:	81 50       	subi	r24, 0x01	; 1
    1ec8:	80 93 1c 01 	sts	0x011C, r24	; 0x80011c <twi_timeout>
}
    1ecc:	00 00       	nop
    1ece:	df 91       	pop	r29
    1ed0:	cf 91       	pop	r28
    1ed2:	ff 91       	pop	r31
    1ed4:	ef 91       	pop	r30
    1ed6:	9f 91       	pop	r25
    1ed8:	8f 91       	pop	r24
    1eda:	3f 91       	pop	r19
    1edc:	2f 91       	pop	r18
    1ede:	0f 90       	pop	r0
    1ee0:	00 92 5b 00 	sts	0x005B, r0	; 0x80005b <__TEXT_REGION_LENGTH__+0x7e005b>
    1ee4:	0f 90       	pop	r0
    1ee6:	00 92 5f 00 	sts	0x005F, r0	; 0x80005f <__TEXT_REGION_LENGTH__+0x7e005f>
    1eea:	0f 90       	pop	r0
    1eec:	1f 90       	pop	r1
    1eee:	18 95       	reti

00001ef0 <__vector_15>:
//Variablen Niklas ENDE

double calc_power (double speed, double acceleration);

ISR(TIMER1_OVF_vect)
{
    1ef0:	1f 92       	push	r1
    1ef2:	0f 92       	push	r0
    1ef4:	00 90 5f 00 	lds	r0, 0x005F	; 0x80005f <__TEXT_REGION_LENGTH__+0x7e005f>
    1ef8:	0f 92       	push	r0
    1efa:	11 24       	eor	r1, r1
    1efc:	8f 93       	push	r24
    1efe:	9f 93       	push	r25
    1f00:	cf 93       	push	r28
    1f02:	df 93       	push	r29
    1f04:	cd b7       	in	r28, 0x3d	; 61
    1f06:	de b7       	in	r29, 0x3e	; 62
	TimerOverflow = 1;
    1f08:	81 e0       	ldi	r24, 0x01	; 1
    1f0a:	90 e0       	ldi	r25, 0x00	; 0
    1f0c:	90 93 1e 01 	sts	0x011E, r25	; 0x80011e <TimerOverflow+0x1>
    1f10:	80 93 1d 01 	sts	0x011D, r24	; 0x80011d <TimerOverflow>
}
    1f14:	00 00       	nop
    1f16:	df 91       	pop	r29
    1f18:	cf 91       	pop	r28
    1f1a:	9f 91       	pop	r25
    1f1c:	8f 91       	pop	r24
    1f1e:	0f 90       	pop	r0
    1f20:	00 92 5f 00 	sts	0x005F, r0	; 0x80005f <__TEXT_REGION_LENGTH__+0x7e005f>
    1f24:	0f 90       	pop	r0
    1f26:	1f 90       	pop	r1
    1f28:	18 95       	reti

00001f2a <__vector_4>:

ISR (PCINT0_vect)
{
    1f2a:	1f 92       	push	r1
    1f2c:	0f 92       	push	r0
    1f2e:	00 90 5f 00 	lds	r0, 0x005F	; 0x80005f <__TEXT_REGION_LENGTH__+0x7e005f>
    1f32:	0f 92       	push	r0
    1f34:	11 24       	eor	r1, r1
    1f36:	8f 93       	push	r24
    1f38:	cf 93       	push	r28
    1f3a:	df 93       	push	r29
    1f3c:	cd b7       	in	r28, 0x3d	; 61
    1f3e:	de b7       	in	r29, 0x3e	; 62
	JoySelect_Flag = 1;
    1f40:	81 e0       	ldi	r24, 0x01	; 1
    1f42:	80 93 1b 03 	sts	0x031B, r24	; 0x80031b <JoySelect_Flag>
}
    1f46:	00 00       	nop
    1f48:	df 91       	pop	r29
    1f4a:	cf 91       	pop	r28
    1f4c:	8f 91       	pop	r24
    1f4e:	0f 90       	pop	r0
    1f50:	00 92 5f 00 	sts	0x005F, r0	; 0x80005f <__TEXT_REGION_LENGTH__+0x7e005f>
    1f54:	0f 90       	pop	r0
    1f56:	1f 90       	pop	r1
    1f58:	18 95       	reti

00001f5a <__vector_1>:

//ISR Niklas
ISR (INT0_vect)
{
    1f5a:	1f 92       	push	r1
    1f5c:	0f 92       	push	r0
    1f5e:	00 90 5f 00 	lds	r0, 0x005F	; 0x80005f <__TEXT_REGION_LENGTH__+0x7e005f>
    1f62:	0f 92       	push	r0
    1f64:	11 24       	eor	r1, r1
    1f66:	8f 93       	push	r24
    1f68:	cf 93       	push	r28
    1f6a:	df 93       	push	r29
    1f6c:	cd b7       	in	r28, 0x3d	; 61
    1f6e:	de b7       	in	r29, 0x3e	; 62
	flag_pcint = 1;
    1f70:	81 e0       	ldi	r24, 0x01	; 1
    1f72:	80 93 24 03 	sts	0x0324, r24	; 0x800324 <flag_pcint>
}
    1f76:	00 00       	nop
    1f78:	df 91       	pop	r29
    1f7a:	cf 91       	pop	r28
    1f7c:	8f 91       	pop	r24
    1f7e:	0f 90       	pop	r0
    1f80:	00 92 5f 00 	sts	0x005F, r0	; 0x80005f <__TEXT_REGION_LENGTH__+0x7e005f>
    1f84:	0f 90       	pop	r0
    1f86:	1f 90       	pop	r1
    1f88:	18 95       	reti

00001f8a <__vector_16>:

ISR (TIMER0_COMPA_vect)
{
    1f8a:	1f 92       	push	r1
    1f8c:	0f 92       	push	r0
    1f8e:	00 90 5f 00 	lds	r0, 0x005F	; 0x80005f <__TEXT_REGION_LENGTH__+0x7e005f>
    1f92:	0f 92       	push	r0
    1f94:	11 24       	eor	r1, r1
    1f96:	8f 93       	push	r24
    1f98:	cf 93       	push	r28
    1f9a:	df 93       	push	r29
    1f9c:	cd b7       	in	r28, 0x3d	; 61
    1f9e:	de b7       	in	r29, 0x3e	; 62
	flag_time++;
    1fa0:	80 91 26 03 	lds	r24, 0x0326	; 0x800326 <flag_time>
    1fa4:	8f 5f       	subi	r24, 0xFF	; 255
    1fa6:	80 93 26 03 	sts	0x0326, r24	; 0x800326 <flag_time>
} 
    1faa:	00 00       	nop
    1fac:	df 91       	pop	r29
    1fae:	cf 91       	pop	r28
    1fb0:	8f 91       	pop	r24
    1fb2:	0f 90       	pop	r0
    1fb4:	00 92 5f 00 	sts	0x005F, r0	; 0x80005f <__TEXT_REGION_LENGTH__+0x7e005f>
    1fb8:	0f 90       	pop	r0
    1fba:	1f 90       	pop	r1
    1fbc:	18 95       	reti

00001fbe <main>:
//ISR Niklas ENDE

int main (void)
{
    1fbe:	8f 92       	push	r8
    1fc0:	9f 92       	push	r9
    1fc2:	af 92       	push	r10
    1fc4:	bf 92       	push	r11
    1fc6:	cf 92       	push	r12
    1fc8:	df 92       	push	r13
    1fca:	ef 92       	push	r14
    1fcc:	ff 92       	push	r15
    1fce:	0f 93       	push	r16
    1fd0:	1f 93       	push	r17
    1fd2:	cf 93       	push	r28
    1fd4:	df 93       	push	r29
    1fd6:	cd b7       	in	r28, 0x3d	; 61
    1fd8:	de b7       	in	r29, 0x3e	; 62
    1fda:	64 97       	sbiw	r28, 0x14	; 20
    1fdc:	0f b6       	in	r0, 0x3f	; 63
    1fde:	f8 94       	cli
    1fe0:	de bf       	out	0x3e, r29	; 62
    1fe2:	0f be       	out	0x3f, r0	; 63
    1fe4:	cd bf       	out	0x3d, r28	; 61
	//++++++++++++++++++++++++++++++++++++ SETUP ++++++++++++++++++++++++++++++++++++
	cli();
    1fe6:	f8 94       	cli
	// set PA3-PA7 as input and activated internal Pull-Up
	DDRA  &= ~((1<<PINA3)|(1<<PINA4)|(1<<PINA5)|(1<<PINA6)|(1<<PINA7));				// PINA3-PINA7 als Eingänge definiert
    1fe8:	81 e2       	ldi	r24, 0x21	; 33
    1fea:	90 e0       	ldi	r25, 0x00	; 0
    1fec:	21 e2       	ldi	r18, 0x21	; 33
    1fee:	30 e0       	ldi	r19, 0x00	; 0
    1ff0:	f9 01       	movw	r30, r18
    1ff2:	20 81       	ld	r18, Z
    1ff4:	27 70       	andi	r18, 0x07	; 7
    1ff6:	fc 01       	movw	r30, r24
    1ff8:	20 83       	st	Z, r18
	PORTA |=  ((1<<PINA3)|(1<<PINA4)|(1<<PINA5)|(1<<PINA6)|(1<<PINA7));				// PINA3-PINA7 werden auf HIGH gezogen
    1ffa:	82 e2       	ldi	r24, 0x22	; 34
    1ffc:	90 e0       	ldi	r25, 0x00	; 0
    1ffe:	22 e2       	ldi	r18, 0x22	; 34
    2000:	30 e0       	ldi	r19, 0x00	; 0
    2002:	f9 01       	movw	r30, r18
    2004:	20 81       	ld	r18, Z
    2006:	28 6f       	ori	r18, 0xF8	; 248
    2008:	fc 01       	movw	r30, r24
    200a:	20 83       	st	Z, r18
	
	DDRD &= ~(1<<PIND2); // als Reedsensor-Eingang
    200c:	8a e2       	ldi	r24, 0x2A	; 42
    200e:	90 e0       	ldi	r25, 0x00	; 0
    2010:	2a e2       	ldi	r18, 0x2A	; 42
    2012:	30 e0       	ldi	r19, 0x00	; 0
    2014:	f9 01       	movw	r30, r18
    2016:	20 81       	ld	r18, Z
    2018:	2b 7f       	andi	r18, 0xFB	; 251
    201a:	fc 01       	movw	r30, r24
    201c:	20 83       	st	Z, r18
	PORTD |= (1<<PIND2); // Sensor zieht Pin auf Masse
    201e:	8b e2       	ldi	r24, 0x2B	; 43
    2020:	90 e0       	ldi	r25, 0x00	; 0
    2022:	2b e2       	ldi	r18, 0x2B	; 43
    2024:	30 e0       	ldi	r19, 0x00	; 0
    2026:	f9 01       	movw	r30, r18
    2028:	20 81       	ld	r18, Z
    202a:	24 60       	ori	r18, 0x04	; 4
    202c:	fc 01       	movw	r30, r24
    202e:	20 83       	st	Z, r18
	
	
	DDRB = 0x0F;	// DDRB als Ausgang setzen
    2030:	84 e2       	ldi	r24, 0x24	; 36
    2032:	90 e0       	ldi	r25, 0x00	; 0
    2034:	2f e0       	ldi	r18, 0x0F	; 15
    2036:	fc 01       	movw	r30, r24
    2038:	20 83       	st	Z, r18
	PORTB |= 0x0F;	// Pins an PORTB auf High (beschaltung)
    203a:	85 e2       	ldi	r24, 0x25	; 37
    203c:	90 e0       	ldi	r25, 0x00	; 0
    203e:	25 e2       	ldi	r18, 0x25	; 37
    2040:	30 e0       	ldi	r19, 0x00	; 0
    2042:	f9 01       	movw	r30, r18
    2044:	20 81       	ld	r18, Z
    2046:	2f 60       	ori	r18, 0x0F	; 15
    2048:	fc 01       	movw	r30, r24
    204a:	20 83       	st	Z, r18
	
	PCICR |= (1 << PCIE0);						// Einschalten des Interrupt für PortA
    204c:	88 e6       	ldi	r24, 0x68	; 104
    204e:	90 e0       	ldi	r25, 0x00	; 0
    2050:	28 e6       	ldi	r18, 0x68	; 104
    2052:	30 e0       	ldi	r19, 0x00	; 0
    2054:	f9 01       	movw	r30, r18
    2056:	20 81       	ld	r18, Z
    2058:	21 60       	ori	r18, 0x01	; 1
    205a:	fc 01       	movw	r30, r24
    205c:	20 83       	st	Z, r18
	PCMSK0 |= ((1 << PCINT3)|(1<<PCINT4)|(1<<PCINT5)|(1<<PCINT6)|(1<<PCINT7));				// Interrupterkennung für PB4 und PB5
    205e:	8b e6       	ldi	r24, 0x6B	; 107
    2060:	90 e0       	ldi	r25, 0x00	; 0
    2062:	2b e6       	ldi	r18, 0x6B	; 107
    2064:	30 e0       	ldi	r19, 0x00	; 0
    2066:	f9 01       	movw	r30, r18
    2068:	20 81       	ld	r18, Z
    206a:	28 6f       	ori	r18, 0xF8	; 248
    206c:	fc 01       	movw	r30, r24
    206e:	20 83       	st	Z, r18
	
	TCCR1B = (1 << CS10);		// Prescaler
    2070:	81 e8       	ldi	r24, 0x81	; 129
    2072:	90 e0       	ldi	r25, 0x00	; 0
    2074:	21 e0       	ldi	r18, 0x01	; 1
    2076:	fc 01       	movw	r30, r24
    2078:	20 83       	st	Z, r18
	TCCR1B = ~(1 << CS11);		// auf
    207a:	81 e8       	ldi	r24, 0x81	; 129
    207c:	90 e0       	ldi	r25, 0x00	; 0
    207e:	2d ef       	ldi	r18, 0xFD	; 253
    2080:	fc 01       	movw	r30, r24
    2082:	20 83       	st	Z, r18
	TCCR1B = (1 << CS12);		// 1024
    2084:	81 e8       	ldi	r24, 0x81	; 129
    2086:	90 e0       	ldi	r25, 0x00	; 0
    2088:	24 e0       	ldi	r18, 0x04	; 4
    208a:	fc 01       	movw	r30, r24
    208c:	20 83       	st	Z, r18
	TIMSK1 = (1 << ICIE1);		// Timer1 Interrupt aktiviert
    208e:	8f e6       	ldi	r24, 0x6F	; 111
    2090:	90 e0       	ldi	r25, 0x00	; 0
    2092:	20 e2       	ldi	r18, 0x20	; 32
    2094:	fc 01       	movw	r30, r24
    2096:	20 83       	st	Z, r18
	
	LCD_Init();																				// Initialisierungsroutine des LCD
    2098:	0e 94 02 08 	call	0x1004	; 0x1004 <LCD_Init>
	LCD_Clear();																			// Löscht den Framebuffer und setzt den Cursor auf (0,0)
		
	start_sequence ();																		//Startbildschirm (Logo und Projektbeschreibung)	
	
	sei();																					// Einschalten des Interrupt
    209c:	0c d8       	rcall	.-4072   	; 0x10b6 <LCD_Clear>
    209e:	ac db       	rcall	.-2216   	; 0x17f8 <start_sequence>
    20a0:	78 94       	sei
    20a2:	4b d4       	rcall	.+2198   	; 0x293a <init_pcint>
    20a4:	66 d4       	rcall	.+2252   	; 0x2972 <init_sysclk>
    20a6:	87 e6       	ldi	r24, 0x67	; 103
    20a8:	90 e0       	ldi	r25, 0x00	; 0
    20aa:	98 87       	std	Y+8, r25	; 0x08
    20ac:	8f 83       	std	Y+7, r24	; 0x07
    20ae:	8a e2       	ldi	r24, 0x2A	; 42
    20b0:	90 e0       	ldi	r25, 0x00	; 0
    20b2:	9a 87       	std	Y+10, r25	; 0x0a
    20b4:	89 87       	std	Y+9, r24	; 0x09
    20b6:	1c 86       	std	Y+12, r1	; 0x0c
    20b8:	1b 86       	std	Y+11, r1	; 0x0b
    20ba:	1e 86       	std	Y+14, r1	; 0x0e
    20bc:	1d 86       	std	Y+13, r1	; 0x0d
    20be:	18 8a       	std	Y+16, r1	; 0x10
    20c0:	1f 86       	std	Y+15, r1	; 0x0f
    20c2:	1a 8a       	std	Y+18, r1	; 0x12
    20c4:	19 8a       	std	Y+17, r1	; 0x11
    20c6:	1c 8a       	std	Y+20, r1	; 0x14
    20c8:	1b 8a       	std	Y+19, r1	; 0x13
    20ca:	e0 90 1c 03 	lds	r14, 0x031C	; 0x80031c <time_sys>
    20ce:	f0 90 1d 03 	lds	r15, 0x031D	; 0x80031d <time_sys+0x1>
    20d2:	00 91 1e 03 	lds	r16, 0x031E	; 0x80031e <time_sys+0x2>
    20d6:	10 91 1f 03 	lds	r17, 0x031F	; 0x80031f <time_sys+0x3>
    20da:	20 91 45 05 	lds	r18, 0x0545	; 0x800545 <time_syssec>
    20de:	30 91 46 05 	lds	r19, 0x0546	; 0x800546 <time_syssec+0x1>
    20e2:	40 91 47 05 	lds	r20, 0x0547	; 0x800547 <time_syssec+0x2>
    20e6:	50 91 48 05 	lds	r21, 0x0548	; 0x800548 <time_syssec+0x3>
    20ea:	88 ee       	ldi	r24, 0xE8	; 232
    20ec:	93 e0       	ldi	r25, 0x03	; 3
    20ee:	dc 01       	movw	r26, r24
    20f0:	0e 94 39 19 	call	0x3272	; 0x3272 <__muluhisi3>
    20f4:	dc 01       	movw	r26, r24
    20f6:	cb 01       	movw	r24, r22
    20f8:	a8 01       	movw	r20, r16
    20fa:	97 01       	movw	r18, r14
    20fc:	28 1b       	sub	r18, r24
    20fe:	39 0b       	sbc	r19, r25
    2100:	4a 0b       	sbc	r20, r26
    2102:	5b 0b       	sbc	r21, r27
    2104:	da 01       	movw	r26, r20
    2106:	c9 01       	movw	r24, r18
    2108:	88 3e       	cpi	r24, 0xE8	; 232
    210a:	93 40       	sbci	r25, 0x03	; 3
    210c:	a1 05       	cpc	r26, r1
    210e:	b1 05       	cpc	r27, r1
    2110:	e8 f0       	brcs	.+58     	; 0x214c <main+0x18e>
    2112:	80 91 45 05 	lds	r24, 0x0545	; 0x800545 <time_syssec>
    2116:	90 91 46 05 	lds	r25, 0x0546	; 0x800546 <time_syssec+0x1>
    211a:	a0 91 47 05 	lds	r26, 0x0547	; 0x800547 <time_syssec+0x2>
    211e:	b0 91 48 05 	lds	r27, 0x0548	; 0x800548 <time_syssec+0x3>
    2122:	01 96       	adiw	r24, 0x01	; 1
    2124:	a1 1d       	adc	r26, r1
    2126:	b1 1d       	adc	r27, r1
    2128:	80 93 45 05 	sts	0x0545, r24	; 0x800545 <time_syssec>
    212c:	90 93 46 05 	sts	0x0546, r25	; 0x800546 <time_syssec+0x1>
    2130:	a0 93 47 05 	sts	0x0547, r26	; 0x800547 <time_syssec+0x2>
    2134:	b0 93 48 05 	sts	0x0548, r27	; 0x800548 <time_syssec+0x3>
    2138:	85 e2       	ldi	r24, 0x25	; 37
    213a:	90 e0       	ldi	r25, 0x00	; 0
    213c:	25 e2       	ldi	r18, 0x25	; 37
    213e:	30 e0       	ldi	r19, 0x00	; 0
    2140:	f9 01       	movw	r30, r18
    2142:	30 81       	ld	r19, Z
    2144:	21 e0       	ldi	r18, 0x01	; 1
    2146:	23 27       	eor	r18, r19
    2148:	fc 01       	movw	r30, r24
    214a:	20 83       	st	Z, r18
    214c:	89 e2       	ldi	r24, 0x29	; 41
    214e:	90 e0       	ldi	r25, 0x00	; 0
    2150:	fc 01       	movw	r30, r24
    2152:	80 81       	ld	r24, Z
    2154:	88 2f       	mov	r24, r24
    2156:	90 e0       	ldi	r25, 0x00	; 0
    2158:	84 70       	andi	r24, 0x04	; 4
    215a:	99 27       	eor	r25, r25
    215c:	21 e0       	ldi	r18, 0x01	; 1
    215e:	89 2b       	or	r24, r25
    2160:	09 f0       	breq	.+2      	; 0x2164 <main+0x1a6>
    2162:	20 e0       	ldi	r18, 0x00	; 0
    2164:	82 2f       	mov	r24, r18
    2166:	80 93 0e 01 	sts	0x010E, r24	; 0x80010e <state_sensor>
    216a:	80 91 24 03 	lds	r24, 0x0324	; 0x800324 <flag_pcint>
    216e:	88 23       	and	r24, r24
    2170:	21 f4       	brne	.+8      	; 0x217a <main+0x1bc>
    2172:	80 91 0e 01 	lds	r24, 0x010E	; 0x80010e <state_sensor>
    2176:	81 30       	cpi	r24, 0x01	; 1
    2178:	a9 f5       	brne	.+106    	; 0x21e4 <main+0x226>
    217a:	80 91 05 01 	lds	r24, 0x0105	; 0x800105 <time_debounce>
    217e:	90 91 06 01 	lds	r25, 0x0106	; 0x800106 <time_debounce+0x1>
    2182:	9c 01       	movw	r18, r24
    2184:	40 e0       	ldi	r20, 0x00	; 0
    2186:	50 e0       	ldi	r21, 0x00	; 0
    2188:	80 91 20 03 	lds	r24, 0x0320	; 0x800320 <time_lasthigh>
    218c:	90 91 21 03 	lds	r25, 0x0321	; 0x800321 <time_lasthigh+0x1>
    2190:	a0 91 22 03 	lds	r26, 0x0322	; 0x800322 <time_lasthigh+0x2>
    2194:	b0 91 23 03 	lds	r27, 0x0323	; 0x800323 <time_lasthigh+0x3>
    2198:	28 0f       	add	r18, r24
    219a:	39 1f       	adc	r19, r25
    219c:	4a 1f       	adc	r20, r26
    219e:	5b 1f       	adc	r21, r27
    21a0:	80 91 1c 03 	lds	r24, 0x031C	; 0x80031c <time_sys>
    21a4:	90 91 1d 03 	lds	r25, 0x031D	; 0x80031d <time_sys+0x1>
    21a8:	a0 91 1e 03 	lds	r26, 0x031E	; 0x80031e <time_sys+0x2>
    21ac:	b0 91 1f 03 	lds	r27, 0x031F	; 0x80031f <time_sys+0x3>
    21b0:	28 17       	cp	r18, r24
    21b2:	39 07       	cpc	r19, r25
    21b4:	4a 07       	cpc	r20, r26
    21b6:	5b 07       	cpc	r21, r27
    21b8:	18 f4       	brcc	.+6      	; 0x21c0 <main+0x202>
    21ba:	81 e0       	ldi	r24, 0x01	; 1
    21bc:	80 93 25 03 	sts	0x0325, r24	; 0x800325 <flag_turn>
    21c0:	80 91 1c 03 	lds	r24, 0x031C	; 0x80031c <time_sys>
    21c4:	90 91 1d 03 	lds	r25, 0x031D	; 0x80031d <time_sys+0x1>
    21c8:	a0 91 1e 03 	lds	r26, 0x031E	; 0x80031e <time_sys+0x2>
    21cc:	b0 91 1f 03 	lds	r27, 0x031F	; 0x80031f <time_sys+0x3>
    21d0:	80 93 20 03 	sts	0x0320, r24	; 0x800320 <time_lasthigh>
    21d4:	90 93 21 03 	sts	0x0321, r25	; 0x800321 <time_lasthigh+0x1>
    21d8:	a0 93 22 03 	sts	0x0322, r26	; 0x800322 <time_lasthigh+0x2>
    21dc:	b0 93 23 03 	sts	0x0323, r27	; 0x800323 <time_lasthigh+0x3>
    21e0:	10 92 24 03 	sts	0x0324, r1	; 0x800324 <flag_pcint>
    21e4:	80 91 25 03 	lds	r24, 0x0325	; 0x800325 <flag_turn>
    21e8:	88 23       	and	r24, r24
    21ea:	09 f4       	brne	.+2      	; 0x21ee <main+0x230>
    21ec:	fa c1       	rjmp	.+1012   	; 0x25e2 <main+0x624>
    21ee:	85 e2       	ldi	r24, 0x25	; 37
    21f0:	90 e0       	ldi	r25, 0x00	; 0
    21f2:	25 e2       	ldi	r18, 0x25	; 37
    21f4:	30 e0       	ldi	r19, 0x00	; 0
    21f6:	f9 01       	movw	r30, r18
    21f8:	30 81       	ld	r19, Z
    21fa:	28 e0       	ldi	r18, 0x08	; 8
    21fc:	23 27       	eor	r18, r19
    21fe:	fc 01       	movw	r30, r24
    2200:	20 83       	st	Z, r18
    2202:	80 91 2c 03 	lds	r24, 0x032C	; 0x80032c <time_measarray+0x4>
    2206:	90 91 2d 03 	lds	r25, 0x032D	; 0x80032d <time_measarray+0x5>
    220a:	a0 91 2e 03 	lds	r26, 0x032E	; 0x80032e <time_measarray+0x6>
    220e:	b0 91 2f 03 	lds	r27, 0x032F	; 0x80032f <time_measarray+0x7>
    2212:	80 93 28 03 	sts	0x0328, r24	; 0x800328 <time_measarray>
    2216:	90 93 29 03 	sts	0x0329, r25	; 0x800329 <time_measarray+0x1>
    221a:	a0 93 2a 03 	sts	0x032A, r26	; 0x80032a <time_measarray+0x2>
    221e:	b0 93 2b 03 	sts	0x032B, r27	; 0x80032b <time_measarray+0x3>
    2222:	80 91 30 03 	lds	r24, 0x0330	; 0x800330 <time_measarray+0x8>
    2226:	90 91 31 03 	lds	r25, 0x0331	; 0x800331 <time_measarray+0x9>
    222a:	a0 91 32 03 	lds	r26, 0x0332	; 0x800332 <time_measarray+0xa>
    222e:	b0 91 33 03 	lds	r27, 0x0333	; 0x800333 <time_measarray+0xb>
    2232:	80 93 2c 03 	sts	0x032C, r24	; 0x80032c <time_measarray+0x4>
    2236:	90 93 2d 03 	sts	0x032D, r25	; 0x80032d <time_measarray+0x5>
    223a:	a0 93 2e 03 	sts	0x032E, r26	; 0x80032e <time_measarray+0x6>
    223e:	b0 93 2f 03 	sts	0x032F, r27	; 0x80032f <time_measarray+0x7>
    2242:	80 91 34 03 	lds	r24, 0x0334	; 0x800334 <time_measarray+0xc>
    2246:	90 91 35 03 	lds	r25, 0x0335	; 0x800335 <time_measarray+0xd>
    224a:	a0 91 36 03 	lds	r26, 0x0336	; 0x800336 <time_measarray+0xe>
    224e:	b0 91 37 03 	lds	r27, 0x0337	; 0x800337 <time_measarray+0xf>
    2252:	80 93 30 03 	sts	0x0330, r24	; 0x800330 <time_measarray+0x8>
    2256:	90 93 31 03 	sts	0x0331, r25	; 0x800331 <time_measarray+0x9>
    225a:	a0 93 32 03 	sts	0x0332, r26	; 0x800332 <time_measarray+0xa>
    225e:	b0 93 33 03 	sts	0x0333, r27	; 0x800333 <time_measarray+0xb>
    2262:	80 91 38 03 	lds	r24, 0x0338	; 0x800338 <time_measarray+0x10>
    2266:	90 91 39 03 	lds	r25, 0x0339	; 0x800339 <time_measarray+0x11>
    226a:	a0 91 3a 03 	lds	r26, 0x033A	; 0x80033a <time_measarray+0x12>
    226e:	b0 91 3b 03 	lds	r27, 0x033B	; 0x80033b <time_measarray+0x13>
    2272:	80 93 34 03 	sts	0x0334, r24	; 0x800334 <time_measarray+0xc>
    2276:	90 93 35 03 	sts	0x0335, r25	; 0x800335 <time_measarray+0xd>
    227a:	a0 93 36 03 	sts	0x0336, r26	; 0x800336 <time_measarray+0xe>
    227e:	b0 93 37 03 	sts	0x0337, r27	; 0x800337 <time_measarray+0xf>
    2282:	80 91 1c 03 	lds	r24, 0x031C	; 0x80031c <time_sys>
    2286:	90 91 1d 03 	lds	r25, 0x031D	; 0x80031d <time_sys+0x1>
    228a:	a0 91 1e 03 	lds	r26, 0x031E	; 0x80031e <time_sys+0x2>
    228e:	b0 91 1f 03 	lds	r27, 0x031F	; 0x80031f <time_sys+0x3>
    2292:	80 93 38 03 	sts	0x0338, r24	; 0x800338 <time_measarray+0x10>
    2296:	90 93 39 03 	sts	0x0339, r25	; 0x800339 <time_measarray+0x11>
    229a:	a0 93 3a 03 	sts	0x033A, r26	; 0x80033a <time_measarray+0x12>
    229e:	b0 93 3b 03 	sts	0x033B, r27	; 0x80033b <time_measarray+0x13>
    22a2:	81 e0       	ldi	r24, 0x01	; 1
    22a4:	80 93 3c 03 	sts	0x033C, r24	; 0x80033c <flag_measarray>
    22a8:	80 91 3e 03 	lds	r24, 0x033E	; 0x80033e <flag_measarray+0x2>
    22ac:	80 93 3d 03 	sts	0x033D, r24	; 0x80033d <flag_measarray+0x1>
    22b0:	80 91 3f 03 	lds	r24, 0x033F	; 0x80033f <flag_measarray+0x3>
    22b4:	80 93 3e 03 	sts	0x033E, r24	; 0x80033e <flag_measarray+0x2>
    22b8:	80 91 40 03 	lds	r24, 0x0340	; 0x800340 <flag_measarray+0x4>
    22bc:	80 93 3f 03 	sts	0x033F, r24	; 0x80033f <flag_measarray+0x3>
    22c0:	20 91 38 03 	lds	r18, 0x0338	; 0x800338 <time_measarray+0x10>
    22c4:	30 91 39 03 	lds	r19, 0x0339	; 0x800339 <time_measarray+0x11>
    22c8:	40 91 3a 03 	lds	r20, 0x033A	; 0x80033a <time_measarray+0x12>
    22cc:	50 91 3b 03 	lds	r21, 0x033B	; 0x80033b <time_measarray+0x13>
    22d0:	80 91 34 03 	lds	r24, 0x0334	; 0x800334 <time_measarray+0xc>
    22d4:	90 91 35 03 	lds	r25, 0x0335	; 0x800335 <time_measarray+0xd>
    22d8:	a0 91 36 03 	lds	r26, 0x0336	; 0x800336 <time_measarray+0xe>
    22dc:	b0 91 37 03 	lds	r27, 0x0337	; 0x800337 <time_measarray+0xf>
    22e0:	28 17       	cp	r18, r24
    22e2:	39 07       	cpc	r19, r25
    22e4:	4a 07       	cpc	r20, r26
    22e6:	5b 07       	cpc	r21, r27
    22e8:	09 f4       	brne	.+2      	; 0x22ec <main+0x32e>
    22ea:	4e c0       	rjmp	.+156    	; 0x2388 <main+0x3ca>
    22ec:	80 91 07 01 	lds	r24, 0x0107	; 0x800107 <size_wheel>
    22f0:	90 91 08 01 	lds	r25, 0x0108	; 0x800108 <size_wheel+0x1>
    22f4:	cc 01       	movw	r24, r24
    22f6:	a0 e0       	ldi	r26, 0x00	; 0
    22f8:	b0 e0       	ldi	r27, 0x00	; 0
    22fa:	bc 01       	movw	r22, r24
    22fc:	cd 01       	movw	r24, r26
    22fe:	6f d6       	rcall	.+3294   	; 0x2fde <__floatunsisf>
    2300:	6b 01       	movw	r12, r22
    2302:	7c 01       	movw	r14, r24
    2304:	80 91 38 03 	lds	r24, 0x0338	; 0x800338 <time_measarray+0x10>
    2308:	90 91 39 03 	lds	r25, 0x0339	; 0x800339 <time_measarray+0x11>
    230c:	a0 91 3a 03 	lds	r26, 0x033A	; 0x80033a <time_measarray+0x12>
    2310:	b0 91 3b 03 	lds	r27, 0x033B	; 0x80033b <time_measarray+0x13>
    2314:	bc 01       	movw	r22, r24
    2316:	cd 01       	movw	r24, r26
    2318:	62 d6       	rcall	.+3268   	; 0x2fde <__floatunsisf>
    231a:	4b 01       	movw	r8, r22
    231c:	5c 01       	movw	r10, r24
    231e:	80 91 34 03 	lds	r24, 0x0334	; 0x800334 <time_measarray+0xc>
    2322:	90 91 35 03 	lds	r25, 0x0335	; 0x800335 <time_measarray+0xd>
    2326:	a0 91 36 03 	lds	r26, 0x0336	; 0x800336 <time_measarray+0xe>
    232a:	b0 91 37 03 	lds	r27, 0x0337	; 0x800337 <time_measarray+0xf>
    232e:	bc 01       	movw	r22, r24
    2330:	cd 01       	movw	r24, r26
    2332:	55 d6       	rcall	.+3242   	; 0x2fde <__floatunsisf>
    2334:	dc 01       	movw	r26, r24
    2336:	cb 01       	movw	r24, r22
    2338:	9c 01       	movw	r18, r24
    233a:	ad 01       	movw	r20, r26
    233c:	c5 01       	movw	r24, r10
    233e:	b4 01       	movw	r22, r8
    2340:	4c d5       	rcall	.+2712   	; 0x2dda <__subsf3>
    2342:	dc 01       	movw	r26, r24
    2344:	cb 01       	movw	r24, r22
    2346:	9c 01       	movw	r18, r24
    2348:	ad 01       	movw	r20, r26
    234a:	c7 01       	movw	r24, r14
    234c:	b6 01       	movw	r22, r12
    234e:	ae d5       	rcall	.+2908   	; 0x2eac <__divsf3>
    2350:	dc 01       	movw	r26, r24
    2352:	cb 01       	movw	r24, r22
    2354:	6c 01       	movw	r12, r24
    2356:	7d 01       	movw	r14, r26
    2358:	80 91 09 01 	lds	r24, 0x0109	; 0x800109 <speed_threshold>
    235c:	88 2f       	mov	r24, r24
    235e:	90 e0       	ldi	r25, 0x00	; 0
    2360:	a0 e0       	ldi	r26, 0x00	; 0
    2362:	b0 e0       	ldi	r27, 0x00	; 0
    2364:	bc 01       	movw	r22, r24
    2366:	cd 01       	movw	r24, r26
    2368:	3a d6       	rcall	.+3188   	; 0x2fde <__floatunsisf>
    236a:	dc 01       	movw	r26, r24
    236c:	cb 01       	movw	r24, r22
    236e:	11 e0       	ldi	r17, 0x01	; 1
    2370:	9c 01       	movw	r18, r24
    2372:	ad 01       	movw	r20, r26
    2374:	c7 01       	movw	r24, r14
    2376:	b6 01       	movw	r22, r12
    2378:	e4 d6       	rcall	.+3528   	; 0x3142 <__gesf2>
    237a:	88 23       	and	r24, r24
    237c:	0c f4       	brge	.+2      	; 0x2380 <main+0x3c2>
    237e:	10 e0       	ldi	r17, 0x00	; 0
    2380:	81 2f       	mov	r24, r17
    2382:	80 93 40 03 	sts	0x0340, r24	; 0x800340 <flag_measarray+0x4>
    2386:	02 c0       	rjmp	.+4      	; 0x238c <main+0x3ce>
    2388:	10 92 40 03 	sts	0x0340, r1	; 0x800340 <flag_measarray+0x4>
    238c:	80 91 3c 03 	lds	r24, 0x033C	; 0x80033c <flag_measarray>
    2390:	88 23       	and	r24, r24
    2392:	09 f4       	brne	.+2      	; 0x2396 <main+0x3d8>
    2394:	24 c1       	rjmp	.+584    	; 0x25de <main+0x620>
    2396:	80 91 3d 03 	lds	r24, 0x033D	; 0x80033d <flag_measarray+0x1>
    239a:	88 23       	and	r24, r24
    239c:	09 f4       	brne	.+2      	; 0x23a0 <main+0x3e2>
    239e:	1f c1       	rjmp	.+574    	; 0x25de <main+0x620>
    23a0:	80 91 3e 03 	lds	r24, 0x033E	; 0x80033e <flag_measarray+0x2>
    23a4:	88 23       	and	r24, r24
    23a6:	09 f4       	brne	.+2      	; 0x23aa <main+0x3ec>
    23a8:	1a c1       	rjmp	.+564    	; 0x25de <main+0x620>
    23aa:	80 91 3f 03 	lds	r24, 0x033F	; 0x80033f <flag_measarray+0x3>
    23ae:	88 23       	and	r24, r24
    23b0:	09 f4       	brne	.+2      	; 0x23b4 <main+0x3f6>
    23b2:	15 c1       	rjmp	.+554    	; 0x25de <main+0x620>
    23b4:	80 91 40 03 	lds	r24, 0x0340	; 0x800340 <flag_measarray+0x4>
    23b8:	88 23       	and	r24, r24
    23ba:	09 f4       	brne	.+2      	; 0x23be <main+0x400>
    23bc:	10 c1       	rjmp	.+544    	; 0x25de <main+0x620>
    23be:	80 91 07 01 	lds	r24, 0x0107	; 0x800107 <size_wheel>
    23c2:	90 91 08 01 	lds	r25, 0x0108	; 0x800108 <size_wheel+0x1>
    23c6:	88 0f       	add	r24, r24
    23c8:	99 1f       	adc	r25, r25
    23ca:	7c 01       	movw	r14, r24
    23cc:	00 e0       	ldi	r16, 0x00	; 0
    23ce:	10 e0       	ldi	r17, 0x00	; 0
    23d0:	20 91 34 03 	lds	r18, 0x0334	; 0x800334 <time_measarray+0xc>
    23d4:	30 91 35 03 	lds	r19, 0x0335	; 0x800335 <time_measarray+0xd>
    23d8:	40 91 36 03 	lds	r20, 0x0336	; 0x800336 <time_measarray+0xe>
    23dc:	50 91 37 03 	lds	r21, 0x0337	; 0x800337 <time_measarray+0xf>
    23e0:	80 91 2c 03 	lds	r24, 0x032C	; 0x80032c <time_measarray+0x4>
    23e4:	90 91 2d 03 	lds	r25, 0x032D	; 0x80032d <time_measarray+0x5>
    23e8:	a0 91 2e 03 	lds	r26, 0x032E	; 0x80032e <time_measarray+0x6>
    23ec:	b0 91 2f 03 	lds	r27, 0x032F	; 0x80032f <time_measarray+0x7>
    23f0:	28 1b       	sub	r18, r24
    23f2:	39 0b       	sbc	r19, r25
    23f4:	4a 0b       	sbc	r20, r26
    23f6:	5b 0b       	sbc	r21, r27
    23f8:	c8 01       	movw	r24, r16
    23fa:	b7 01       	movw	r22, r14
    23fc:	18 d7       	rcall	.+3632   	; 0x322e <__udivmodsi4>
    23fe:	da 01       	movw	r26, r20
    2400:	c9 01       	movw	r24, r18
    2402:	bc 01       	movw	r22, r24
    2404:	cd 01       	movw	r24, r26
    2406:	eb d5       	rcall	.+3030   	; 0x2fde <__floatunsisf>
    2408:	dc 01       	movw	r26, r24
    240a:	cb 01       	movw	r24, r22
    240c:	80 93 35 05 	sts	0x0535, r24	; 0x800535 <speed_current>
    2410:	90 93 36 05 	sts	0x0536, r25	; 0x800536 <speed_current+0x1>
    2414:	a0 93 37 05 	sts	0x0537, r26	; 0x800537 <speed_current+0x2>
    2418:	b0 93 38 05 	sts	0x0538, r27	; 0x800538 <speed_current+0x3>
    241c:	40 91 07 01 	lds	r20, 0x0107	; 0x800107 <size_wheel>
    2420:	50 91 08 01 	lds	r21, 0x0108	; 0x800108 <size_wheel+0x1>
    2424:	20 ed       	ldi	r18, 0xD0	; 208
    2426:	37 e0       	ldi	r19, 0x07	; 7
    2428:	42 9f       	mul	r20, r18
    242a:	c0 01       	movw	r24, r0
    242c:	43 9f       	mul	r20, r19
    242e:	90 0d       	add	r25, r0
    2430:	52 9f       	mul	r21, r18
    2432:	90 0d       	add	r25, r0
    2434:	11 24       	eor	r1, r1
    2436:	7c 01       	movw	r14, r24
    2438:	00 e0       	ldi	r16, 0x00	; 0
    243a:	10 e0       	ldi	r17, 0x00	; 0
    243c:	20 91 38 03 	lds	r18, 0x0338	; 0x800338 <time_measarray+0x10>
    2440:	30 91 39 03 	lds	r19, 0x0339	; 0x800339 <time_measarray+0x11>
    2444:	40 91 3a 03 	lds	r20, 0x033A	; 0x80033a <time_measarray+0x12>
    2448:	50 91 3b 03 	lds	r21, 0x033B	; 0x80033b <time_measarray+0x13>
    244c:	80 91 30 03 	lds	r24, 0x0330	; 0x800330 <time_measarray+0x8>
    2450:	90 91 31 03 	lds	r25, 0x0331	; 0x800331 <time_measarray+0x9>
    2454:	a0 91 32 03 	lds	r26, 0x0332	; 0x800332 <time_measarray+0xa>
    2458:	b0 91 33 03 	lds	r27, 0x0333	; 0x800333 <time_measarray+0xb>
    245c:	28 1b       	sub	r18, r24
    245e:	39 0b       	sbc	r19, r25
    2460:	4a 0b       	sbc	r20, r26
    2462:	5b 0b       	sbc	r21, r27
    2464:	81 e0       	ldi	r24, 0x01	; 1
    2466:	90 e0       	ldi	r25, 0x00	; 0
    2468:	a0 e0       	ldi	r26, 0x00	; 0
    246a:	b0 e0       	ldi	r27, 0x00	; 0
    246c:	bc 01       	movw	r22, r24
    246e:	cd 01       	movw	r24, r26
    2470:	de d6       	rcall	.+3516   	; 0x322e <__udivmodsi4>
    2472:	da 01       	movw	r26, r20
    2474:	c9 01       	movw	r24, r18
    2476:	5c 01       	movw	r10, r24
    2478:	6d 01       	movw	r12, r26
    247a:	20 91 30 03 	lds	r18, 0x0330	; 0x800330 <time_measarray+0x8>
    247e:	30 91 31 03 	lds	r19, 0x0331	; 0x800331 <time_measarray+0x9>
    2482:	40 91 32 03 	lds	r20, 0x0332	; 0x800332 <time_measarray+0xa>
    2486:	50 91 33 03 	lds	r21, 0x0333	; 0x800333 <time_measarray+0xb>
    248a:	80 91 28 03 	lds	r24, 0x0328	; 0x800328 <time_measarray>
    248e:	90 91 29 03 	lds	r25, 0x0329	; 0x800329 <time_measarray+0x1>
    2492:	a0 91 2a 03 	lds	r26, 0x032A	; 0x80032a <time_measarray+0x2>
    2496:	b0 91 2b 03 	lds	r27, 0x032B	; 0x80032b <time_measarray+0x3>
    249a:	28 1b       	sub	r18, r24
    249c:	39 0b       	sbc	r19, r25
    249e:	4a 0b       	sbc	r20, r26
    24a0:	5b 0b       	sbc	r21, r27
    24a2:	81 e0       	ldi	r24, 0x01	; 1
    24a4:	90 e0       	ldi	r25, 0x00	; 0
    24a6:	a0 e0       	ldi	r26, 0x00	; 0
    24a8:	b0 e0       	ldi	r27, 0x00	; 0
    24aa:	bc 01       	movw	r22, r24
    24ac:	cd 01       	movw	r24, r26
    24ae:	bf d6       	rcall	.+3454   	; 0x322e <__udivmodsi4>
    24b0:	da 01       	movw	r26, r20
    24b2:	c9 01       	movw	r24, r18
    24b4:	a8 1a       	sub	r10, r24
    24b6:	b9 0a       	sbc	r11, r25
    24b8:	ca 0a       	sbc	r12, r26
    24ba:	db 0a       	sbc	r13, r27
    24bc:	20 91 34 03 	lds	r18, 0x0334	; 0x800334 <time_measarray+0xc>
    24c0:	30 91 35 03 	lds	r19, 0x0335	; 0x800335 <time_measarray+0xd>
    24c4:	40 91 36 03 	lds	r20, 0x0336	; 0x800336 <time_measarray+0xe>
    24c8:	50 91 37 03 	lds	r21, 0x0337	; 0x800337 <time_measarray+0xf>
    24cc:	80 91 2c 03 	lds	r24, 0x032C	; 0x80032c <time_measarray+0x4>
    24d0:	90 91 2d 03 	lds	r25, 0x032D	; 0x80032d <time_measarray+0x5>
    24d4:	a0 91 2e 03 	lds	r26, 0x032E	; 0x80032e <time_measarray+0x6>
    24d8:	b0 91 2f 03 	lds	r27, 0x032F	; 0x80032f <time_measarray+0x7>
    24dc:	28 1b       	sub	r18, r24
    24de:	39 0b       	sbc	r19, r25
    24e0:	4a 0b       	sbc	r20, r26
    24e2:	5b 0b       	sbc	r21, r27
    24e4:	c6 01       	movw	r24, r12
    24e6:	b5 01       	movw	r22, r10
    24e8:	a2 d6       	rcall	.+3396   	; 0x322e <__udivmodsi4>
    24ea:	da 01       	movw	r26, r20
    24ec:	c9 01       	movw	r24, r18
    24ee:	a8 01       	movw	r20, r16
    24f0:	97 01       	movw	r18, r14
    24f2:	bc 01       	movw	r22, r24
    24f4:	cd 01       	movw	r24, r26
    24f6:	8c d6       	rcall	.+3352   	; 0x3210 <__mulsi3>
    24f8:	dc 01       	movw	r26, r24
    24fa:	cb 01       	movw	r24, r22
    24fc:	bc 01       	movw	r22, r24
    24fe:	cd 01       	movw	r24, r26
    2500:	6e d5       	rcall	.+2780   	; 0x2fde <__floatunsisf>
    2502:	dc 01       	movw	r26, r24
    2504:	cb 01       	movw	r24, r22
    2506:	80 93 39 05 	sts	0x0539, r24	; 0x800539 <acc_current>
    250a:	90 93 3a 05 	sts	0x053A, r25	; 0x80053a <acc_current+0x1>
    250e:	a0 93 3b 05 	sts	0x053B, r26	; 0x80053b <acc_current+0x2>
    2512:	b0 93 3c 05 	sts	0x053C, r27	; 0x80053c <acc_current+0x3>
    2516:	80 91 0a 01 	lds	r24, 0x010A	; 0x80010a <mass_eff>
    251a:	90 91 0b 01 	lds	r25, 0x010B	; 0x80010b <mass_eff+0x1>
    251e:	a0 91 0c 01 	lds	r26, 0x010C	; 0x80010c <mass_eff+0x2>
    2522:	b0 91 0d 01 	lds	r27, 0x010D	; 0x80010d <mass_eff+0x3>
    2526:	b0 58       	subi	r27, 0x80	; 128
    2528:	20 91 35 05 	lds	r18, 0x0535	; 0x800535 <speed_current>
    252c:	30 91 36 05 	lds	r19, 0x0536	; 0x800536 <speed_current+0x1>
    2530:	40 91 37 05 	lds	r20, 0x0537	; 0x800537 <speed_current+0x2>
    2534:	50 91 38 05 	lds	r21, 0x0538	; 0x800538 <speed_current+0x3>
    2538:	bc 01       	movw	r22, r24
    253a:	cd 01       	movw	r24, r26
    253c:	06 d6       	rcall	.+3084   	; 0x314a <__mulsf3>
    253e:	dc 01       	movw	r26, r24
    2540:	cb 01       	movw	r24, r22
    2542:	7c 01       	movw	r14, r24
    2544:	8d 01       	movw	r16, r26
    2546:	80 91 39 05 	lds	r24, 0x0539	; 0x800539 <acc_current>
    254a:	90 91 3a 05 	lds	r25, 0x053A	; 0x80053a <acc_current+0x1>
    254e:	a0 91 3b 05 	lds	r26, 0x053B	; 0x80053b <acc_current+0x2>
    2552:	b0 91 3c 05 	lds	r27, 0x053C	; 0x80053c <acc_current+0x3>
    2556:	9c 01       	movw	r18, r24
    2558:	ad 01       	movw	r20, r26
    255a:	c8 01       	movw	r24, r16
    255c:	b7 01       	movw	r22, r14
    255e:	f5 d5       	rcall	.+3050   	; 0x314a <__mulsf3>
    2560:	dc 01       	movw	r26, r24
    2562:	cb 01       	movw	r24, r22
    2564:	80 93 3d 05 	sts	0x053D, r24	; 0x80053d <power_current>
    2568:	90 93 3e 05 	sts	0x053E, r25	; 0x80053e <power_current+0x1>
    256c:	a0 93 3f 05 	sts	0x053F, r26	; 0x80053f <power_current+0x2>
    2570:	b0 93 40 05 	sts	0x0540, r27	; 0x800540 <power_current+0x3>
    2574:	80 91 27 03 	lds	r24, 0x0327	; 0x800327 <flag_store>
    2578:	88 23       	and	r24, r24
    257a:	a1 f0       	breq	.+40     	; 0x25a4 <main+0x5e6>
    257c:	20 91 3d 05 	lds	r18, 0x053D	; 0x80053d <power_current>
    2580:	30 91 3e 05 	lds	r19, 0x053E	; 0x80053e <power_current+0x1>
    2584:	40 91 3f 05 	lds	r20, 0x053F	; 0x80053f <power_current+0x2>
    2588:	50 91 40 05 	lds	r21, 0x0540	; 0x800540 <power_current+0x3>
    258c:	80 91 35 05 	lds	r24, 0x0535	; 0x800535 <speed_current>
    2590:	90 91 36 05 	lds	r25, 0x0536	; 0x800536 <speed_current+0x1>
    2594:	a0 91 37 05 	lds	r26, 0x0537	; 0x800537 <speed_current+0x2>
    2598:	b0 91 38 05 	lds	r27, 0x0538	; 0x800538 <speed_current+0x3>
    259c:	bc 01       	movw	r22, r24
    259e:	cd 01       	movw	r24, r26
    25a0:	09 d2       	rcall	.+1042   	; 0x29b4 <store_table>
    25a2:	1d c0       	rjmp	.+58     	; 0x25de <main+0x620>
    25a4:	20 91 39 05 	lds	r18, 0x0539	; 0x800539 <acc_current>
    25a8:	30 91 3a 05 	lds	r19, 0x053A	; 0x80053a <acc_current+0x1>
    25ac:	40 91 3b 05 	lds	r20, 0x053B	; 0x80053b <acc_current+0x2>
    25b0:	50 91 3c 05 	lds	r21, 0x053C	; 0x80053c <acc_current+0x3>
    25b4:	80 91 35 05 	lds	r24, 0x0535	; 0x800535 <speed_current>
    25b8:	90 91 36 05 	lds	r25, 0x0536	; 0x800536 <speed_current+0x1>
    25bc:	a0 91 37 05 	lds	r26, 0x0537	; 0x800537 <speed_current+0x2>
    25c0:	b0 91 38 05 	lds	r27, 0x0538	; 0x800538 <speed_current+0x3>
    25c4:	bc 01       	movw	r22, r24
    25c6:	cd 01       	movw	r24, r26
    25c8:	a6 d2       	rcall	.+1356   	; 0x2b16 <calc_power>
    25ca:	dc 01       	movw	r26, r24
    25cc:	cb 01       	movw	r24, r22
    25ce:	80 93 41 05 	sts	0x0541, r24	; 0x800541 <power_calc>
    25d2:	90 93 42 05 	sts	0x0542, r25	; 0x800542 <power_calc+0x1>
    25d6:	a0 93 43 05 	sts	0x0543, r26	; 0x800543 <power_calc+0x2>
    25da:	b0 93 44 05 	sts	0x0544, r27	; 0x800544 <power_calc+0x3>
    25de:	10 92 25 03 	sts	0x0325, r1	; 0x800325 <flag_turn>
    25e2:	80 91 26 03 	lds	r24, 0x0326	; 0x800326 <flag_time>
    25e6:	88 23       	and	r24, r24
    25e8:	e1 f3       	breq	.-8      	; 0x25e2 <main+0x624>
    25ea:	80 91 26 03 	lds	r24, 0x0326	; 0x800326 <flag_time>
    25ee:	28 2f       	mov	r18, r24
    25f0:	88 0f       	add	r24, r24
    25f2:	33 0b       	sbc	r19, r19
    25f4:	44 0b       	sbc	r20, r20
    25f6:	55 0b       	sbc	r21, r21
    25f8:	80 91 1c 03 	lds	r24, 0x031C	; 0x80031c <time_sys>
    25fc:	90 91 1d 03 	lds	r25, 0x031D	; 0x80031d <time_sys+0x1>
    2600:	a0 91 1e 03 	lds	r26, 0x031E	; 0x80031e <time_sys+0x2>
    2604:	b0 91 1f 03 	lds	r27, 0x031F	; 0x80031f <time_sys+0x3>
    2608:	82 0f       	add	r24, r18
    260a:	93 1f       	adc	r25, r19
    260c:	a4 1f       	adc	r26, r20
    260e:	b5 1f       	adc	r27, r21
    2610:	80 93 1c 03 	sts	0x031C, r24	; 0x80031c <time_sys>
    2614:	90 93 1d 03 	sts	0x031D, r25	; 0x80031d <time_sys+0x1>
    2618:	a0 93 1e 03 	sts	0x031E, r26	; 0x80031e <time_sys+0x2>
    261c:	b0 93 1f 03 	sts	0x031F, r27	; 0x80031f <time_sys+0x3>
    2620:	10 92 26 03 	sts	0x0326, r1	; 0x800326 <flag_time>
    2624:	80 91 1b 03 	lds	r24, 0x031B	; 0x80031b <JoySelect_Flag>
    2628:	81 30       	cpi	r24, 0x01	; 1
    262a:	09 f0       	breq	.+2      	; 0x262e <main+0x670>
    262c:	40 c0       	rjmp	.+128    	; 0x26ae <main+0x6f0>
    262e:	0f 2e       	mov	r0, r31
    2630:	f3 e2       	ldi	r31, 0x23	; 35
    2632:	ef 2e       	mov	r14, r31
    2634:	f1 e0       	ldi	r31, 0x01	; 1
    2636:	ff 2e       	mov	r15, r31
    2638:	f0 2d       	mov	r31, r0
    263a:	02 e2       	ldi	r16, 0x22	; 34
    263c:	11 e0       	ldi	r17, 0x01	; 1
    263e:	21 e2       	ldi	r18, 0x21	; 33
    2640:	31 e0       	ldi	r19, 0x01	; 1
    2642:	44 e0       	ldi	r20, 0x04	; 4
    2644:	51 e0       	ldi	r21, 0x01	; 1
    2646:	6f e1       	ldi	r22, 0x1F	; 31
    2648:	71 e0       	ldi	r23, 0x01	; 1
    264a:	83 e0       	ldi	r24, 0x03	; 3
    264c:	91 e0       	ldi	r25, 0x01	; 1
    264e:	0e 94 2b 06 	call	0xc56	; 0xc56 <JoySelect>
    2652:	80 91 21 01 	lds	r24, 0x0121	; 0x800121 <mass_first>
    2656:	28 2f       	mov	r18, r24
    2658:	30 e0       	ldi	r19, 0x00	; 0
    265a:	80 91 22 01 	lds	r24, 0x0122	; 0x800122 <mass_second>
    265e:	88 2f       	mov	r24, r24
    2660:	90 e0       	ldi	r25, 0x00	; 0
    2662:	88 0f       	add	r24, r24
    2664:	99 1f       	adc	r25, r25
    2666:	ac 01       	movw	r20, r24
    2668:	44 0f       	add	r20, r20
    266a:	55 1f       	adc	r21, r21
    266c:	44 0f       	add	r20, r20
    266e:	55 1f       	adc	r21, r21
    2670:	84 0f       	add	r24, r20
    2672:	95 1f       	adc	r25, r21
    2674:	28 0f       	add	r18, r24
    2676:	39 1f       	adc	r19, r25
    2678:	80 91 23 01 	lds	r24, 0x0123	; 0x800123 <mass_third>
    267c:	48 2f       	mov	r20, r24
    267e:	50 e0       	ldi	r21, 0x00	; 0
    2680:	64 e6       	ldi	r22, 0x64	; 100
    2682:	64 9f       	mul	r22, r20
    2684:	c0 01       	movw	r24, r0
    2686:	65 9f       	mul	r22, r21
    2688:	90 0d       	add	r25, r0
    268a:	11 24       	eor	r1, r1
    268c:	82 0f       	add	r24, r18
    268e:	93 1f       	adc	r25, r19
    2690:	90 93 25 01 	sts	0x0125, r25	; 0x800125 <mass+0x1>
    2694:	80 93 24 01 	sts	0x0124, r24	; 0x800124 <mass>
    2698:	20 91 04 01 	lds	r18, 0x0104	; 0x800104 <push>
    269c:	90 91 1f 01 	lds	r25, 0x011F	; 0x80011f <sely>
    26a0:	80 91 03 01 	lds	r24, 0x0103	; 0x800103 <selx>
    26a4:	42 2f       	mov	r20, r18
    26a6:	69 2f       	mov	r22, r25
    26a8:	f6 d9       	rcall	.-3092   	; 0x1a96 <GUI_select>
    26aa:	10 92 1b 03 	sts	0x031B, r1	; 0x80031b <JoySelect_Flag>
    26ae:	80 e2       	ldi	r24, 0x20	; 32
    26b0:	91 e0       	ldi	r25, 0x01	; 1
    26b2:	0e 94 d4 05 	call	0xba8	; 0xba8 <counting>
    26b6:	80 91 26 01 	lds	r24, 0x0126	; 0x800126 <input_loop>
    26ba:	28 2f       	mov	r18, r24
    26bc:	30 e0       	ldi	r19, 0x00	; 0
    26be:	8f 81       	ldd	r24, Y+7	; 0x07
    26c0:	98 85       	ldd	r25, Y+8	; 0x08
    26c2:	82 17       	cp	r24, r18
    26c4:	93 07       	cpc	r25, r19
    26c6:	0c f0       	brlt	.+2      	; 0x26ca <main+0x70c>
    26c8:	5a c0       	rjmp	.+180    	; 0x277e <main+0x7c0>
    26ca:	1a 82       	std	Y+2, r1	; 0x02
    26cc:	19 82       	std	Y+1, r1	; 0x01
    26ce:	17 c0       	rjmp	.+46     	; 0x26fe <main+0x740>
    26d0:	89 81       	ldd	r24, Y+1	; 0x01
    26d2:	9a 81       	ldd	r25, Y+2	; 0x02
    26d4:	88 0f       	add	r24, r24
    26d6:	99 1f       	adc	r25, r25
    26d8:	89 5d       	subi	r24, 0xD9	; 217
    26da:	9e 4f       	sbci	r25, 0xFE	; 254
    26dc:	fc 01       	movw	r30, r24
    26de:	20 81       	ld	r18, Z
    26e0:	31 81       	ldd	r19, Z+1	; 0x01
    26e2:	89 81       	ldd	r24, Y+1	; 0x01
    26e4:	9a 81       	ldd	r25, Y+2	; 0x02
    26e6:	88 0f       	add	r24, r24
    26e8:	99 1f       	adc	r25, r25
    26ea:	8f 5d       	subi	r24, 0xDF	; 223
    26ec:	9d 4f       	sbci	r25, 0xFD	; 253
    26ee:	fc 01       	movw	r30, r24
    26f0:	31 83       	std	Z+1, r19	; 0x01
    26f2:	20 83       	st	Z, r18
    26f4:	89 81       	ldd	r24, Y+1	; 0x01
    26f6:	9a 81       	ldd	r25, Y+2	; 0x02
    26f8:	01 96       	adiw	r24, 0x01	; 1
    26fa:	9a 83       	std	Y+2, r25	; 0x02
    26fc:	89 83       	std	Y+1, r24	; 0x01
    26fe:	89 81       	ldd	r24, Y+1	; 0x01
    2700:	9a 81       	ldd	r25, Y+2	; 0x02
    2702:	87 36       	cpi	r24, 0x67	; 103
    2704:	91 05       	cpc	r25, r1
    2706:	24 f3       	brlt	.-56     	; 0x26d0 <main+0x712>
    2708:	81 e0       	ldi	r24, 0x01	; 1
    270a:	90 e0       	ldi	r25, 0x00	; 0
    270c:	9c 83       	std	Y+4, r25	; 0x04
    270e:	8b 83       	std	Y+3, r24	; 0x03
    2710:	1c c0       	rjmp	.+56     	; 0x274a <main+0x78c>
    2712:	8b 81       	ldd	r24, Y+3	; 0x03
    2714:	9c 81       	ldd	r25, Y+4	; 0x04
    2716:	88 0f       	add	r24, r24
    2718:	99 1f       	adc	r25, r25
    271a:	89 5d       	subi	r24, 0xD9	; 217
    271c:	9e 4f       	sbci	r25, 0xFE	; 254
    271e:	fc 01       	movw	r30, r24
    2720:	80 81       	ld	r24, Z
    2722:	91 81       	ldd	r25, Z+1	; 0x01
    2724:	9c 8b       	std	Y+20, r25	; 0x14
    2726:	8b 8b       	std	Y+19, r24	; 0x13
    2728:	8b 81       	ldd	r24, Y+3	; 0x03
    272a:	9c 81       	ldd	r25, Y+4	; 0x04
    272c:	01 97       	sbiw	r24, 0x01	; 1
    272e:	2b 89       	ldd	r18, Y+19	; 0x13
    2730:	3c 89       	ldd	r19, Y+20	; 0x14
    2732:	88 0f       	add	r24, r24
    2734:	99 1f       	adc	r25, r25
    2736:	89 5d       	subi	r24, 0xD9	; 217
    2738:	9e 4f       	sbci	r25, 0xFE	; 254
    273a:	fc 01       	movw	r30, r24
    273c:	31 83       	std	Z+1, r19	; 0x01
    273e:	20 83       	st	Z, r18
    2740:	8b 81       	ldd	r24, Y+3	; 0x03
    2742:	9c 81       	ldd	r25, Y+4	; 0x04
    2744:	01 96       	adiw	r24, 0x01	; 1
    2746:	9c 83       	std	Y+4, r25	; 0x04
    2748:	8b 83       	std	Y+3, r24	; 0x03
    274a:	8b 81       	ldd	r24, Y+3	; 0x03
    274c:	9c 81       	ldd	r25, Y+4	; 0x04
    274e:	89 36       	cpi	r24, 0x69	; 105
    2750:	91 05       	cpc	r25, r1
    2752:	fc f2       	brlt	.-66     	; 0x2712 <main+0x754>
    2754:	80 91 26 01 	lds	r24, 0x0126	; 0x800126 <input_loop>
    2758:	81 50       	subi	r24, 0x01	; 1
    275a:	80 93 26 01 	sts	0x0126, r24	; 0x800126 <input_loop>
    275e:	80 91 26 01 	lds	r24, 0x0126	; 0x800126 <input_loop>
    2762:	88 2f       	mov	r24, r24
    2764:	90 e0       	ldi	r25, 0x00	; 0
    2766:	20 91 20 01 	lds	r18, 0x0120	; 0x800120 <count>
    276a:	22 2f       	mov	r18, r18
    276c:	30 e0       	ldi	r19, 0x00	; 0
    276e:	88 0f       	add	r24, r24
    2770:	99 1f       	adc	r25, r25
    2772:	89 5d       	subi	r24, 0xD9	; 217
    2774:	9e 4f       	sbci	r25, 0xFE	; 254
    2776:	fc 01       	movw	r30, r24
    2778:	31 83       	std	Z+1, r19	; 0x01
    277a:	20 83       	st	Z, r18
    277c:	0f c0       	rjmp	.+30     	; 0x279c <main+0x7de>
    277e:	80 91 26 01 	lds	r24, 0x0126	; 0x800126 <input_loop>
    2782:	88 2f       	mov	r24, r24
    2784:	90 e0       	ldi	r25, 0x00	; 0
    2786:	20 91 20 01 	lds	r18, 0x0120	; 0x800120 <count>
    278a:	22 2f       	mov	r18, r18
    278c:	30 e0       	ldi	r19, 0x00	; 0
    278e:	88 0f       	add	r24, r24
    2790:	99 1f       	adc	r25, r25
    2792:	89 5d       	subi	r24, 0xD9	; 217
    2794:	9e 4f       	sbci	r25, 0xFE	; 254
    2796:	fc 01       	movw	r30, r24
    2798:	31 83       	std	Z+1, r19	; 0x01
    279a:	20 83       	st	Z, r18
    279c:	80 91 26 01 	lds	r24, 0x0126	; 0x800126 <input_loop>
    27a0:	8f 5f       	subi	r24, 0xFF	; 255
    27a2:	80 93 26 01 	sts	0x0126, r24	; 0x800126 <input_loop>
    27a6:	80 91 03 01 	lds	r24, 0x0103	; 0x800103 <selx>
    27aa:	88 2f       	mov	r24, r24
    27ac:	90 e0       	ldi	r25, 0x00	; 0
    27ae:	87 30       	cpi	r24, 0x07	; 7
    27b0:	91 05       	cpc	r25, r1
    27b2:	09 f4       	brne	.+2      	; 0x27b6 <main+0x7f8>
    27b4:	57 c0       	rjmp	.+174    	; 0x2864 <main+0x8a6>
    27b6:	8c 30       	cpi	r24, 0x0C	; 12
    27b8:	91 05       	cpc	r25, r1
    27ba:	09 f4       	brne	.+2      	; 0x27be <main+0x800>
    27bc:	9f c0       	rjmp	.+318    	; 0x28fc <main+0x93e>
    27be:	02 97       	sbiw	r24, 0x02	; 2
    27c0:	09 f0       	breq	.+2      	; 0x27c4 <main+0x806>
    27c2:	ba c0       	rjmp	.+372    	; 0x2938 <main+0x97a>
    27c4:	63 e0       	ldi	r22, 0x03	; 3
    27c6:	81 e0       	ldi	r24, 0x01	; 1
    27c8:	0e 94 be 0b 	call	0x177c	; 0x177c <LCD_GotoXY>
    27cc:	81 e4       	ldi	r24, 0x41	; 65
    27ce:	9b e0       	ldi	r25, 0x0B	; 11
    27d0:	0e 94 71 0b 	call	0x16e2	; 0x16e2 <LCD_PutString_P>
    27d4:	64 e0       	ldi	r22, 0x04	; 4
    27d6:	81 e0       	ldi	r24, 0x01	; 1
    27d8:	0e 94 be 0b 	call	0x177c	; 0x177c <LCD_GotoXY>
    27dc:	82 e5       	ldi	r24, 0x52	; 82
    27de:	9b e0       	ldi	r25, 0x0B	; 11
    27e0:	0e 94 71 0b 	call	0x16e2	; 0x16e2 <LCD_PutString_P>
    27e4:	64 e0       	ldi	r22, 0x04	; 4
    27e6:	81 e0       	ldi	r24, 0x01	; 1
    27e8:	0e 94 be 0b 	call	0x177c	; 0x177c <LCD_GotoXY>
    27ec:	80 91 35 05 	lds	r24, 0x0535	; 0x800535 <speed_current>
    27f0:	90 91 36 05 	lds	r25, 0x0536	; 0x800536 <speed_current+0x1>
    27f4:	a0 91 37 05 	lds	r26, 0x0537	; 0x800537 <speed_current+0x2>
    27f8:	b0 91 38 05 	lds	r27, 0x0538	; 0x800538 <speed_current+0x3>
    27fc:	26 e6       	ldi	r18, 0x66	; 102
    27fe:	36 e6       	ldi	r19, 0x66	; 102
    2800:	46 e6       	ldi	r20, 0x66	; 102
    2802:	50 e4       	ldi	r21, 0x40	; 64
    2804:	bc 01       	movw	r22, r24
    2806:	cd 01       	movw	r24, r26
    2808:	a0 d4       	rcall	.+2368   	; 0x314a <__mulsf3>
    280a:	dc 01       	movw	r26, r24
    280c:	cb 01       	movw	r24, r22
    280e:	bc 01       	movw	r22, r24
    2810:	cd 01       	movw	r24, r26
    2812:	b4 d3       	rcall	.+1896   	; 0x2f7c <__fixsfsi>
    2814:	dc 01       	movw	r26, r24
    2816:	cb 01       	movw	r24, r22
    2818:	6a e0       	ldi	r22, 0x0A	; 10
    281a:	0e 94 9b 0b 	call	0x1736	; 0x1736 <LCD_PutNumber>
    281e:	64 e0       	ldi	r22, 0x04	; 4
    2820:	84 e0       	ldi	r24, 0x04	; 4
    2822:	0e 94 be 0b 	call	0x177c	; 0x177c <LCD_GotoXY>
    2826:	86 e5       	ldi	r24, 0x56	; 86
    2828:	9b e0       	ldi	r25, 0x0B	; 11
    282a:	0e 94 71 0b 	call	0x16e2	; 0x16e2 <LCD_PutString_P>
    282e:	65 e0       	ldi	r22, 0x05	; 5
    2830:	81 e0       	ldi	r24, 0x01	; 1
    2832:	0e 94 be 0b 	call	0x177c	; 0x177c <LCD_GotoXY>
    2836:	8b e5       	ldi	r24, 0x5B	; 91
    2838:	9b e0       	ldi	r25, 0x0B	; 11
    283a:	0e 94 71 0b 	call	0x16e2	; 0x16e2 <LCD_PutString_P>
    283e:	66 e0       	ldi	r22, 0x06	; 6
    2840:	81 e0       	ldi	r24, 0x01	; 1
    2842:	0e 94 be 0b 	call	0x177c	; 0x177c <LCD_GotoXY>
    2846:	6a e0       	ldi	r22, 0x0A	; 10
    2848:	82 e0       	ldi	r24, 0x02	; 2
    284a:	0e 94 9b 0b 	call	0x1736	; 0x1736 <LCD_PutNumber>
    284e:	66 e0       	ldi	r22, 0x06	; 6
    2850:	84 e0       	ldi	r24, 0x04	; 4
    2852:	0e 94 be 0b 	call	0x177c	; 0x177c <LCD_GotoXY>
    2856:	85 e6       	ldi	r24, 0x65	; 101
    2858:	9b e0       	ldi	r25, 0x0B	; 11
    285a:	0e 94 71 0b 	call	0x16e2	; 0x16e2 <LCD_PutString_P>
    285e:	0e 94 8d 08 	call	0x111a	; 0x111a <LCD_Update>
    2862:	6a c0       	rjmp	.+212    	; 0x2938 <main+0x97a>
    2864:	1e 82       	std	Y+6, r1	; 0x06
    2866:	1d 82       	std	Y+5, r1	; 0x05
    2868:	3c c0       	rjmp	.+120    	; 0x28e2 <main+0x924>
    286a:	8d 81       	ldd	r24, Y+5	; 0x05
    286c:	9e 81       	ldd	r25, Y+6	; 0x06
    286e:	88 0f       	add	r24, r24
    2870:	99 1f       	adc	r25, r25
    2872:	89 5d       	subi	r24, 0xD9	; 217
    2874:	9e 4f       	sbci	r25, 0xFE	; 254
    2876:	fc 01       	movw	r30, r24
    2878:	80 81       	ld	r24, Z
    287a:	91 81       	ldd	r25, Z+1	; 0x01
    287c:	2c e3       	ldi	r18, 0x3C	; 60
    287e:	30 e0       	ldi	r19, 0x00	; 0
    2880:	a9 01       	movw	r20, r18
    2882:	48 1b       	sub	r20, r24
    2884:	59 0b       	sbc	r21, r25
    2886:	ca 01       	movw	r24, r20
    2888:	98 8b       	std	Y+16, r25	; 0x10
    288a:	8f 87       	std	Y+15, r24	; 0x0f
    288c:	8d 81       	ldd	r24, Y+5	; 0x05
    288e:	9e 81       	ldd	r25, Y+6	; 0x06
    2890:	0d 96       	adiw	r24, 0x0d	; 13
    2892:	9c 87       	std	Y+12, r25	; 0x0c
    2894:	8b 87       	std	Y+11, r24	; 0x0b
    2896:	8d 81       	ldd	r24, Y+5	; 0x05
    2898:	9e 81       	ldd	r25, Y+6	; 0x06
    289a:	88 0f       	add	r24, r24
    289c:	99 1f       	adc	r25, r25
    289e:	8f 5d       	subi	r24, 0xDF	; 223
    28a0:	9d 4f       	sbci	r25, 0xFD	; 253
    28a2:	fc 01       	movw	r30, r24
    28a4:	80 81       	ld	r24, Z
    28a6:	91 81       	ldd	r25, Z+1	; 0x01
    28a8:	2c e3       	ldi	r18, 0x3C	; 60
    28aa:	30 e0       	ldi	r19, 0x00	; 0
    28ac:	a9 01       	movw	r20, r18
    28ae:	48 1b       	sub	r20, r24
    28b0:	59 0b       	sbc	r21, r25
    28b2:	ca 01       	movw	r24, r20
    28b4:	9a 8b       	std	Y+18, r25	; 0x12
    28b6:	89 8b       	std	Y+17, r24	; 0x11
    28b8:	29 89       	ldd	r18, Y+17	; 0x11
    28ba:	9b 85       	ldd	r25, Y+11	; 0x0b
    28bc:	8b 85       	ldd	r24, Y+11	; 0x0b
    28be:	02 e0       	ldi	r16, 0x02	; 2
    28c0:	49 2f       	mov	r20, r25
    28c2:	6c e3       	ldi	r22, 0x3C	; 60
    28c4:	0e 94 bf 09 	call	0x137e	; 0x137e <LCD_DrawLine>
    28c8:	2f 85       	ldd	r18, Y+15	; 0x0f
    28ca:	9b 85       	ldd	r25, Y+11	; 0x0b
    28cc:	8b 85       	ldd	r24, Y+11	; 0x0b
    28ce:	01 e0       	ldi	r16, 0x01	; 1
    28d0:	49 2f       	mov	r20, r25
    28d2:	6c e3       	ldi	r22, 0x3C	; 60
    28d4:	0e 94 bf 09 	call	0x137e	; 0x137e <LCD_DrawLine>
    28d8:	8d 81       	ldd	r24, Y+5	; 0x05
    28da:	9e 81       	ldd	r25, Y+6	; 0x06
    28dc:	01 96       	adiw	r24, 0x01	; 1
    28de:	9e 83       	std	Y+6, r25	; 0x06
    28e0:	8d 83       	std	Y+5, r24	; 0x05
    28e2:	8d 81       	ldd	r24, Y+5	; 0x05
    28e4:	9e 81       	ldd	r25, Y+6	; 0x06
    28e6:	87 36       	cpi	r24, 0x67	; 103
    28e8:	91 05       	cpc	r25, r1
    28ea:	0c f4       	brge	.+2      	; 0x28ee <main+0x930>
    28ec:	be cf       	rjmp	.-132    	; 0x286a <main+0x8ac>
    28ee:	0e 94 8d 08 	call	0x111a	; 0x111a <LCD_Update>
    28f2:	10 92 1e 01 	sts	0x011E, r1	; 0x80011e <TimerOverflow+0x1>
    28f6:	10 92 1d 01 	sts	0x011D, r1	; 0x80011d <TimerOverflow>
    28fa:	1e c0       	rjmp	.+60     	; 0x2938 <main+0x97a>
    28fc:	64 e0       	ldi	r22, 0x04	; 4
    28fe:	8b e0       	ldi	r24, 0x0B	; 11
    2900:	0e 94 be 0b 	call	0x177c	; 0x177c <LCD_GotoXY>
    2904:	80 91 21 01 	lds	r24, 0x0121	; 0x800121 <mass_first>
    2908:	6a e0       	ldi	r22, 0x0A	; 10
    290a:	0e 94 9b 0b 	call	0x1736	; 0x1736 <LCD_PutNumber>
    290e:	64 e0       	ldi	r22, 0x04	; 4
    2910:	8a e0       	ldi	r24, 0x0A	; 10
    2912:	0e 94 be 0b 	call	0x177c	; 0x177c <LCD_GotoXY>
    2916:	80 91 22 01 	lds	r24, 0x0122	; 0x800122 <mass_second>
    291a:	6a e0       	ldi	r22, 0x0A	; 10
    291c:	0e 94 9b 0b 	call	0x1736	; 0x1736 <LCD_PutNumber>
    2920:	64 e0       	ldi	r22, 0x04	; 4
    2922:	89 e0       	ldi	r24, 0x09	; 9
    2924:	0e 94 be 0b 	call	0x177c	; 0x177c <LCD_GotoXY>
    2928:	80 91 23 01 	lds	r24, 0x0123	; 0x800123 <mass_third>
    292c:	6a e0       	ldi	r22, 0x0A	; 10
    292e:	0e 94 9b 0b 	call	0x1736	; 0x1736 <LCD_PutNumber>
    2932:	0e 94 8d 08 	call	0x111a	; 0x111a <LCD_Update>
    2936:	00 00       	nop
    2938:	b6 cb       	rjmp	.-2196   	; 0x20a6 <main+0xe8>

0000293a <init_pcint>:
    293a:	cf 93       	push	r28
    293c:	df 93       	push	r29
    293e:	cd b7       	in	r28, 0x3d	; 61
    2940:	de b7       	in	r29, 0x3e	; 62
    2942:	f8 94       	cli
    2944:	89 e6       	ldi	r24, 0x69	; 105
    2946:	90 e0       	ldi	r25, 0x00	; 0
    2948:	29 e6       	ldi	r18, 0x69	; 105
    294a:	30 e0       	ldi	r19, 0x00	; 0
    294c:	f9 01       	movw	r30, r18
    294e:	20 81       	ld	r18, Z
    2950:	21 60       	ori	r18, 0x01	; 1
    2952:	fc 01       	movw	r30, r24
    2954:	20 83       	st	Z, r18
    2956:	8d e3       	ldi	r24, 0x3D	; 61
    2958:	90 e0       	ldi	r25, 0x00	; 0
    295a:	2d e3       	ldi	r18, 0x3D	; 61
    295c:	30 e0       	ldi	r19, 0x00	; 0
    295e:	f9 01       	movw	r30, r18
    2960:	20 81       	ld	r18, Z
    2962:	21 60       	ori	r18, 0x01	; 1
    2964:	fc 01       	movw	r30, r24
    2966:	20 83       	st	Z, r18
    2968:	78 94       	sei
    296a:	00 00       	nop
    296c:	df 91       	pop	r29
    296e:	cf 91       	pop	r28
    2970:	08 95       	ret

00002972 <init_sysclk>:
    2972:	cf 93       	push	r28
    2974:	df 93       	push	r29
    2976:	cd b7       	in	r28, 0x3d	; 61
    2978:	de b7       	in	r29, 0x3e	; 62
    297a:	f8 94       	cli
    297c:	85 e4       	ldi	r24, 0x45	; 69
    297e:	90 e0       	ldi	r25, 0x00	; 0
    2980:	25 e4       	ldi	r18, 0x45	; 69
    2982:	30 e0       	ldi	r19, 0x00	; 0
    2984:	f9 01       	movw	r30, r18
    2986:	20 81       	ld	r18, Z
    2988:	23 60       	ori	r18, 0x03	; 3
    298a:	fc 01       	movw	r30, r24
    298c:	20 83       	st	Z, r18
    298e:	87 e4       	ldi	r24, 0x47	; 71
    2990:	90 e0       	ldi	r25, 0x00	; 0
    2992:	2a ef       	ldi	r18, 0xFA	; 250
    2994:	fc 01       	movw	r30, r24
    2996:	20 83       	st	Z, r18
    2998:	8e e6       	ldi	r24, 0x6E	; 110
    299a:	90 e0       	ldi	r25, 0x00	; 0
    299c:	2e e6       	ldi	r18, 0x6E	; 110
    299e:	30 e0       	ldi	r19, 0x00	; 0
    29a0:	f9 01       	movw	r30, r18
    29a2:	20 81       	ld	r18, Z
    29a4:	22 60       	ori	r18, 0x02	; 2
    29a6:	fc 01       	movw	r30, r24
    29a8:	20 83       	st	Z, r18
    29aa:	78 94       	sei
    29ac:	00 00       	nop
    29ae:	df 91       	pop	r29
    29b0:	cf 91       	pop	r28
    29b2:	08 95       	ret

000029b4 <store_table>:
    29b4:	cf 93       	push	r28
    29b6:	df 93       	push	r29
    29b8:	cd b7       	in	r28, 0x3d	; 61
    29ba:	de b7       	in	r29, 0x3e	; 62
    29bc:	2a 97       	sbiw	r28, 0x0a	; 10
    29be:	0f b6       	in	r0, 0x3f	; 63
    29c0:	f8 94       	cli
    29c2:	de bf       	out	0x3e, r29	; 62
    29c4:	0f be       	out	0x3f, r0	; 63
    29c6:	cd bf       	out	0x3d, r28	; 61
    29c8:	6b 83       	std	Y+3, r22	; 0x03
    29ca:	7c 83       	std	Y+4, r23	; 0x04
    29cc:	8d 83       	std	Y+5, r24	; 0x05
    29ce:	9e 83       	std	Y+6, r25	; 0x06
    29d0:	2f 83       	std	Y+7, r18	; 0x07
    29d2:	38 87       	std	Y+8, r19	; 0x08
    29d4:	49 87       	std	Y+9, r20	; 0x09
    29d6:	5a 87       	std	Y+10, r21	; 0x0a
    29d8:	19 82       	std	Y+1, r1	; 0x01
    29da:	1a 82       	std	Y+2, r1	; 0x02
    29dc:	20 e0       	ldi	r18, 0x00	; 0
    29de:	30 e0       	ldi	r19, 0x00	; 0
    29e0:	40 e9       	ldi	r20, 0x90	; 144
    29e2:	51 e4       	ldi	r21, 0x41	; 65
    29e4:	6b 81       	ldd	r22, Y+3	; 0x03
    29e6:	7c 81       	ldd	r23, Y+4	; 0x04
    29e8:	8d 81       	ldd	r24, Y+5	; 0x05
    29ea:	9e 81       	ldd	r25, Y+6	; 0x06
    29ec:	ae d3       	rcall	.+1884   	; 0x314a <__mulsf3>
    29ee:	dc 01       	movw	r26, r24
    29f0:	cb 01       	movw	r24, r22
    29f2:	8b 83       	std	Y+3, r24	; 0x03
    29f4:	9c 83       	std	Y+4, r25	; 0x04
    29f6:	ad 83       	std	Y+5, r26	; 0x05
    29f8:	be 83       	std	Y+6, r27	; 0x06
    29fa:	20 e0       	ldi	r18, 0x00	; 0
    29fc:	30 e0       	ldi	r19, 0x00	; 0
    29fe:	4f e7       	ldi	r20, 0x7F	; 127
    2a00:	53 e4       	ldi	r21, 0x43	; 67
    2a02:	6b 81       	ldd	r22, Y+3	; 0x03
    2a04:	7c 81       	ldd	r23, Y+4	; 0x04
    2a06:	8d 81       	ldd	r24, Y+5	; 0x05
    2a08:	9e 81       	ldd	r25, Y+6	; 0x06
    2a0a:	9b d3       	rcall	.+1846   	; 0x3142 <__gesf2>
    2a0c:	18 16       	cp	r1, r24
    2a0e:	44 f4       	brge	.+16     	; 0x2a20 <store_table+0x6c>
    2a10:	80 e0       	ldi	r24, 0x00	; 0
    2a12:	90 e0       	ldi	r25, 0x00	; 0
    2a14:	af e7       	ldi	r26, 0x7F	; 127
    2a16:	b3 e4       	ldi	r27, 0x43	; 67
    2a18:	8b 83       	std	Y+3, r24	; 0x03
    2a1a:	9c 83       	std	Y+4, r25	; 0x04
    2a1c:	ad 83       	std	Y+5, r26	; 0x05
    2a1e:	be 83       	std	Y+6, r27	; 0x06
    2a20:	20 e0       	ldi	r18, 0x00	; 0
    2a22:	30 e0       	ldi	r19, 0x00	; 0
    2a24:	a9 01       	movw	r20, r18
    2a26:	6b 81       	ldd	r22, Y+3	; 0x03
    2a28:	7c 81       	ldd	r23, Y+4	; 0x04
    2a2a:	8d 81       	ldd	r24, Y+5	; 0x05
    2a2c:	9e 81       	ldd	r25, Y+6	; 0x06
    2a2e:	3a d2       	rcall	.+1140   	; 0x2ea4 <__cmpsf2>
    2a30:	88 23       	and	r24, r24
    2a32:	24 f4       	brge	.+8      	; 0x2a3c <store_table+0x88>
    2a34:	1b 82       	std	Y+3, r1	; 0x03
    2a36:	1c 82       	std	Y+4, r1	; 0x04
    2a38:	1d 82       	std	Y+5, r1	; 0x05
    2a3a:	1e 82       	std	Y+6, r1	; 0x06
    2a3c:	6b 81       	ldd	r22, Y+3	; 0x03
    2a3e:	7c 81       	ldd	r23, Y+4	; 0x04
    2a40:	8d 81       	ldd	r24, Y+5	; 0x05
    2a42:	9e 81       	ldd	r25, Y+6	; 0x06
    2a44:	9b d2       	rcall	.+1334   	; 0x2f7c <__fixsfsi>
    2a46:	dc 01       	movw	r26, r24
    2a48:	cb 01       	movw	r24, r22
    2a4a:	89 83       	std	Y+1, r24	; 0x01
    2a4c:	20 e0       	ldi	r18, 0x00	; 0
    2a4e:	30 e0       	ldi	r19, 0x00	; 0
    2a50:	40 e0       	ldi	r20, 0x00	; 0
    2a52:	5f e3       	ldi	r21, 0x3F	; 63
    2a54:	6f 81       	ldd	r22, Y+7	; 0x07
    2a56:	78 85       	ldd	r23, Y+8	; 0x08
    2a58:	89 85       	ldd	r24, Y+9	; 0x09
    2a5a:	9a 85       	ldd	r25, Y+10	; 0x0a
    2a5c:	76 d3       	rcall	.+1772   	; 0x314a <__mulsf3>
    2a5e:	dc 01       	movw	r26, r24
    2a60:	cb 01       	movw	r24, r22
    2a62:	8f 83       	std	Y+7, r24	; 0x07
    2a64:	98 87       	std	Y+8, r25	; 0x08
    2a66:	a9 87       	std	Y+9, r26	; 0x09
    2a68:	ba 87       	std	Y+10, r27	; 0x0a
    2a6a:	20 e0       	ldi	r18, 0x00	; 0
    2a6c:	30 e0       	ldi	r19, 0x00	; 0
    2a6e:	a9 01       	movw	r20, r18
    2a70:	6f 81       	ldd	r22, Y+7	; 0x07
    2a72:	78 85       	ldd	r23, Y+8	; 0x08
    2a74:	89 85       	ldd	r24, Y+9	; 0x09
    2a76:	9a 85       	ldd	r25, Y+10	; 0x0a
    2a78:	15 d2       	rcall	.+1066   	; 0x2ea4 <__cmpsf2>
    2a7a:	88 23       	and	r24, r24
    2a7c:	24 f4       	brge	.+8      	; 0x2a86 <store_table+0xd2>
    2a7e:	1f 82       	std	Y+7, r1	; 0x07
    2a80:	18 86       	std	Y+8, r1	; 0x08
    2a82:	19 86       	std	Y+9, r1	; 0x09
    2a84:	1a 86       	std	Y+10, r1	; 0x0a
    2a86:	20 e0       	ldi	r18, 0x00	; 0
    2a88:	30 e0       	ldi	r19, 0x00	; 0
    2a8a:	4f e7       	ldi	r20, 0x7F	; 127
    2a8c:	53 e4       	ldi	r21, 0x43	; 67
    2a8e:	6f 81       	ldd	r22, Y+7	; 0x07
    2a90:	78 85       	ldd	r23, Y+8	; 0x08
    2a92:	89 85       	ldd	r24, Y+9	; 0x09
    2a94:	9a 85       	ldd	r25, Y+10	; 0x0a
    2a96:	55 d3       	rcall	.+1706   	; 0x3142 <__gesf2>
    2a98:	18 16       	cp	r1, r24
    2a9a:	44 f4       	brge	.+16     	; 0x2aac <store_table+0xf8>
    2a9c:	80 e0       	ldi	r24, 0x00	; 0
    2a9e:	90 e0       	ldi	r25, 0x00	; 0
    2aa0:	af e7       	ldi	r26, 0x7F	; 127
    2aa2:	b3 e4       	ldi	r27, 0x43	; 67
    2aa4:	8f 83       	std	Y+7, r24	; 0x07
    2aa6:	98 87       	std	Y+8, r25	; 0x08
    2aa8:	a9 87       	std	Y+9, r26	; 0x09
    2aaa:	ba 87       	std	Y+10, r27	; 0x0a
    2aac:	6f 81       	ldd	r22, Y+7	; 0x07
    2aae:	78 85       	ldd	r23, Y+8	; 0x08
    2ab0:	89 85       	ldd	r24, Y+9	; 0x09
    2ab2:	9a 85       	ldd	r25, Y+10	; 0x0a
    2ab4:	63 d2       	rcall	.+1222   	; 0x2f7c <__fixsfsi>
    2ab6:	dc 01       	movw	r26, r24
    2ab8:	cb 01       	movw	r24, r22
    2aba:	8a 83       	std	Y+2, r24	; 0x02
    2abc:	80 91 0f 01 	lds	r24, 0x010F	; 0x80010f <speed_last.2110>
    2ac0:	99 81       	ldd	r25, Y+1	; 0x01
    2ac2:	98 17       	cp	r25, r24
    2ac4:	f0 f4       	brcc	.+60     	; 0x2b02 <store_table+0x14e>
    2ac6:	80 91 49 05 	lds	r24, 0x0549	; 0x800549 <i.2111>
    2aca:	88 2f       	mov	r24, r24
    2acc:	90 e0       	ldi	r25, 0x00	; 0
    2ace:	8f 5b       	subi	r24, 0xBF	; 191
    2ad0:	9c 4f       	sbci	r25, 0xFC	; 252
    2ad2:	29 81       	ldd	r18, Y+1	; 0x01
    2ad4:	fc 01       	movw	r30, r24
    2ad6:	20 83       	st	Z, r18
    2ad8:	80 91 49 05 	lds	r24, 0x0549	; 0x800549 <i.2111>
    2adc:	88 2f       	mov	r24, r24
    2ade:	90 e0       	ldi	r25, 0x00	; 0
    2ae0:	85 5c       	subi	r24, 0xC5	; 197
    2ae2:	9b 4f       	sbci	r25, 0xFB	; 251
    2ae4:	2a 81       	ldd	r18, Y+2	; 0x02
    2ae6:	fc 01       	movw	r30, r24
    2ae8:	20 83       	st	Z, r18
    2aea:	89 81       	ldd	r24, Y+1	; 0x01
    2aec:	80 93 0f 01 	sts	0x010F, r24	; 0x80010f <speed_last.2110>
    2af0:	80 91 49 05 	lds	r24, 0x0549	; 0x800549 <i.2111>
    2af4:	8a 3f       	cpi	r24, 0xFA	; 250
    2af6:	28 f4       	brcc	.+10     	; 0x2b02 <store_table+0x14e>
    2af8:	80 91 49 05 	lds	r24, 0x0549	; 0x800549 <i.2111>
    2afc:	8f 5f       	subi	r24, 0xFF	; 255
    2afe:	80 93 49 05 	sts	0x0549, r24	; 0x800549 <i.2111>
    2b02:	00 00       	nop
    2b04:	2a 96       	adiw	r28, 0x0a	; 10
    2b06:	0f b6       	in	r0, 0x3f	; 63
    2b08:	f8 94       	cli
    2b0a:	de bf       	out	0x3e, r29	; 62
    2b0c:	0f be       	out	0x3f, r0	; 63
    2b0e:	cd bf       	out	0x3d, r28	; 61
    2b10:	df 91       	pop	r29
    2b12:	cf 91       	pop	r28
    2b14:	08 95       	ret

00002b16 <calc_power>:
    2b16:	8f 92       	push	r8
    2b18:	9f 92       	push	r9
    2b1a:	af 92       	push	r10
    2b1c:	bf 92       	push	r11
    2b1e:	cf 92       	push	r12
    2b20:	df 92       	push	r13
    2b22:	ef 92       	push	r14
    2b24:	ff 92       	push	r15
    2b26:	cf 93       	push	r28
    2b28:	df 93       	push	r29
    2b2a:	cd b7       	in	r28, 0x3d	; 61
    2b2c:	de b7       	in	r29, 0x3e	; 62
    2b2e:	66 97       	sbiw	r28, 0x16	; 22
    2b30:	0f b6       	in	r0, 0x3f	; 63
    2b32:	f8 94       	cli
    2b34:	de bf       	out	0x3e, r29	; 62
    2b36:	0f be       	out	0x3f, r0	; 63
    2b38:	cd bf       	out	0x3d, r28	; 61
    2b3a:	6f 87       	std	Y+15, r22	; 0x0f
    2b3c:	78 8b       	std	Y+16, r23	; 0x10
    2b3e:	89 8b       	std	Y+17, r24	; 0x11
    2b40:	9a 8b       	std	Y+18, r25	; 0x12
    2b42:	2b 8b       	std	Y+19, r18	; 0x13
    2b44:	3c 8b       	std	Y+20, r19	; 0x14
    2b46:	4d 8b       	std	Y+21, r20	; 0x15
    2b48:	5e 8b       	std	Y+22, r21	; 0x16
    2b4a:	1e 82       	std	Y+6, r1	; 0x06
    2b4c:	1f 82       	std	Y+7, r1	; 0x07
    2b4e:	18 86       	std	Y+8, r1	; 0x08
    2b50:	19 86       	std	Y+9, r1	; 0x09
    2b52:	19 82       	std	Y+1, r1	; 0x01
    2b54:	1a 82       	std	Y+2, r1	; 0x02
    2b56:	1b 82       	std	Y+3, r1	; 0x03
    2b58:	1c 82       	std	Y+4, r1	; 0x04
    2b5a:	1a 86       	std	Y+10, r1	; 0x0a
    2b5c:	1b 86       	std	Y+11, r1	; 0x0b
    2b5e:	1c 86       	std	Y+12, r1	; 0x0c
    2b60:	1d 86       	std	Y+13, r1	; 0x0d
    2b62:	1e 86       	std	Y+14, r1	; 0x0e
    2b64:	1d 82       	std	Y+5, r1	; 0x05
    2b66:	26 e6       	ldi	r18, 0x66	; 102
    2b68:	36 e6       	ldi	r19, 0x66	; 102
    2b6a:	46 e6       	ldi	r20, 0x66	; 102
    2b6c:	50 e4       	ldi	r21, 0x40	; 64
    2b6e:	6f 85       	ldd	r22, Y+15	; 0x0f
    2b70:	78 89       	ldd	r23, Y+16	; 0x10
    2b72:	89 89       	ldd	r24, Y+17	; 0x11
    2b74:	9a 89       	ldd	r25, Y+18	; 0x12
    2b76:	e9 d2       	rcall	.+1490   	; 0x314a <__mulsf3>
    2b78:	dc 01       	movw	r26, r24
    2b7a:	cb 01       	movw	r24, r22
    2b7c:	20 e0       	ldi	r18, 0x00	; 0
    2b7e:	30 e0       	ldi	r19, 0x00	; 0
    2b80:	40 ea       	ldi	r20, 0xA0	; 160
    2b82:	50 e4       	ldi	r21, 0x40	; 64
    2b84:	bc 01       	movw	r22, r24
    2b86:	cd 01       	movw	r24, r26
    2b88:	e0 d2       	rcall	.+1472   	; 0x314a <__mulsf3>
    2b8a:	dc 01       	movw	r26, r24
    2b8c:	cb 01       	movw	r24, r22
    2b8e:	bc 01       	movw	r22, r24
    2b90:	cd 01       	movw	r24, r26
    2b92:	f4 d1       	rcall	.+1000   	; 0x2f7c <__fixsfsi>
    2b94:	dc 01       	movw	r26, r24
    2b96:	cb 01       	movw	r24, r22
    2b98:	8e 87       	std	Y+14, r24	; 0x0e
    2b9a:	03 c0       	rjmp	.+6      	; 0x2ba2 <calc_power+0x8c>
    2b9c:	8d 81       	ldd	r24, Y+5	; 0x05
    2b9e:	8f 5f       	subi	r24, 0xFF	; 255
    2ba0:	8d 83       	std	Y+5, r24	; 0x05
    2ba2:	8d 81       	ldd	r24, Y+5	; 0x05
    2ba4:	88 2f       	mov	r24, r24
    2ba6:	90 e0       	ldi	r25, 0x00	; 0
    2ba8:	8f 5b       	subi	r24, 0xBF	; 191
    2baa:	9c 4f       	sbci	r25, 0xFC	; 252
    2bac:	fc 01       	movw	r30, r24
    2bae:	90 81       	ld	r25, Z
    2bb0:	8e 85       	ldd	r24, Y+14	; 0x0e
    2bb2:	89 17       	cp	r24, r25
    2bb4:	98 f3       	brcs	.-26     	; 0x2b9c <calc_power+0x86>
    2bb6:	8d 81       	ldd	r24, Y+5	; 0x05
    2bb8:	88 2f       	mov	r24, r24
    2bba:	90 e0       	ldi	r25, 0x00	; 0
    2bbc:	8f 5b       	subi	r24, 0xBF	; 191
    2bbe:	9c 4f       	sbci	r25, 0xFC	; 252
    2bc0:	fc 01       	movw	r30, r24
    2bc2:	90 81       	ld	r25, Z
    2bc4:	8e 85       	ldd	r24, Y+14	; 0x0e
    2bc6:	98 17       	cp	r25, r24
    2bc8:	a9 f4       	brne	.+42     	; 0x2bf4 <calc_power+0xde>
    2bca:	8d 81       	ldd	r24, Y+5	; 0x05
    2bcc:	88 2f       	mov	r24, r24
    2bce:	90 e0       	ldi	r25, 0x00	; 0
    2bd0:	85 5c       	subi	r24, 0xC5	; 197
    2bd2:	9b 4f       	sbci	r25, 0xFB	; 251
    2bd4:	fc 01       	movw	r30, r24
    2bd6:	80 81       	ld	r24, Z
    2bd8:	88 2f       	mov	r24, r24
    2bda:	90 e0       	ldi	r25, 0x00	; 0
    2bdc:	a0 e0       	ldi	r26, 0x00	; 0
    2bde:	b0 e0       	ldi	r27, 0x00	; 0
    2be0:	bc 01       	movw	r22, r24
    2be2:	cd 01       	movw	r24, r26
    2be4:	fc d1       	rcall	.+1016   	; 0x2fde <__floatunsisf>
    2be6:	dc 01       	movw	r26, r24
    2be8:	cb 01       	movw	r24, r22
    2bea:	89 83       	std	Y+1, r24	; 0x01
    2bec:	9a 83       	std	Y+2, r25	; 0x02
    2bee:	ab 83       	std	Y+3, r26	; 0x03
    2bf0:	bc 83       	std	Y+4, r27	; 0x04
    2bf2:	af c0       	rjmp	.+350    	; 0x2d52 <calc_power+0x23c>
    2bf4:	8d 81       	ldd	r24, Y+5	; 0x05
    2bf6:	88 2f       	mov	r24, r24
    2bf8:	90 e0       	ldi	r25, 0x00	; 0
    2bfa:	01 97       	sbiw	r24, 0x01	; 1
    2bfc:	85 5c       	subi	r24, 0xC5	; 197
    2bfe:	9b 4f       	sbci	r25, 0xFB	; 251
    2c00:	fc 01       	movw	r30, r24
    2c02:	80 81       	ld	r24, Z
    2c04:	88 2f       	mov	r24, r24
    2c06:	90 e0       	ldi	r25, 0x00	; 0
    2c08:	a0 e0       	ldi	r26, 0x00	; 0
    2c0a:	b0 e0       	ldi	r27, 0x00	; 0
    2c0c:	bc 01       	movw	r22, r24
    2c0e:	cd 01       	movw	r24, r26
    2c10:	e6 d1       	rcall	.+972    	; 0x2fde <__floatunsisf>
    2c12:	6b 01       	movw	r12, r22
    2c14:	7c 01       	movw	r14, r24
    2c16:	8d 81       	ldd	r24, Y+5	; 0x05
    2c18:	88 2f       	mov	r24, r24
    2c1a:	90 e0       	ldi	r25, 0x00	; 0
    2c1c:	85 5c       	subi	r24, 0xC5	; 197
    2c1e:	9b 4f       	sbci	r25, 0xFB	; 251
    2c20:	fc 01       	movw	r30, r24
    2c22:	80 81       	ld	r24, Z
    2c24:	88 2f       	mov	r24, r24
    2c26:	90 e0       	ldi	r25, 0x00	; 0
    2c28:	a0 e0       	ldi	r26, 0x00	; 0
    2c2a:	b0 e0       	ldi	r27, 0x00	; 0
    2c2c:	bc 01       	movw	r22, r24
    2c2e:	cd 01       	movw	r24, r26
    2c30:	d6 d1       	rcall	.+940    	; 0x2fde <__floatunsisf>
    2c32:	dc 01       	movw	r26, r24
    2c34:	cb 01       	movw	r24, r22
    2c36:	9c 01       	movw	r18, r24
    2c38:	ad 01       	movw	r20, r26
    2c3a:	c7 01       	movw	r24, r14
    2c3c:	b6 01       	movw	r22, r12
    2c3e:	cd d0       	rcall	.+410    	; 0x2dda <__subsf3>
    2c40:	dc 01       	movw	r26, r24
    2c42:	cb 01       	movw	r24, r22
    2c44:	6c 01       	movw	r12, r24
    2c46:	7d 01       	movw	r14, r26
    2c48:	8d 81       	ldd	r24, Y+5	; 0x05
    2c4a:	88 2f       	mov	r24, r24
    2c4c:	90 e0       	ldi	r25, 0x00	; 0
    2c4e:	01 97       	sbiw	r24, 0x01	; 1
    2c50:	8f 5b       	subi	r24, 0xBF	; 191
    2c52:	9c 4f       	sbci	r25, 0xFC	; 252
    2c54:	fc 01       	movw	r30, r24
    2c56:	80 81       	ld	r24, Z
    2c58:	88 2f       	mov	r24, r24
    2c5a:	90 e0       	ldi	r25, 0x00	; 0
    2c5c:	a0 e0       	ldi	r26, 0x00	; 0
    2c5e:	b0 e0       	ldi	r27, 0x00	; 0
    2c60:	bc 01       	movw	r22, r24
    2c62:	cd 01       	movw	r24, r26
    2c64:	bc d1       	rcall	.+888    	; 0x2fde <__floatunsisf>
    2c66:	4b 01       	movw	r8, r22
    2c68:	5c 01       	movw	r10, r24
    2c6a:	8d 81       	ldd	r24, Y+5	; 0x05
    2c6c:	88 2f       	mov	r24, r24
    2c6e:	90 e0       	ldi	r25, 0x00	; 0
    2c70:	8f 5b       	subi	r24, 0xBF	; 191
    2c72:	9c 4f       	sbci	r25, 0xFC	; 252
    2c74:	fc 01       	movw	r30, r24
    2c76:	80 81       	ld	r24, Z
    2c78:	88 2f       	mov	r24, r24
    2c7a:	90 e0       	ldi	r25, 0x00	; 0
    2c7c:	a0 e0       	ldi	r26, 0x00	; 0
    2c7e:	b0 e0       	ldi	r27, 0x00	; 0
    2c80:	bc 01       	movw	r22, r24
    2c82:	cd 01       	movw	r24, r26
    2c84:	ac d1       	rcall	.+856    	; 0x2fde <__floatunsisf>
    2c86:	dc 01       	movw	r26, r24
    2c88:	cb 01       	movw	r24, r22
    2c8a:	9c 01       	movw	r18, r24
    2c8c:	ad 01       	movw	r20, r26
    2c8e:	c5 01       	movw	r24, r10
    2c90:	b4 01       	movw	r22, r8
    2c92:	a3 d0       	rcall	.+326    	; 0x2dda <__subsf3>
    2c94:	dc 01       	movw	r26, r24
    2c96:	cb 01       	movw	r24, r22
    2c98:	9c 01       	movw	r18, r24
    2c9a:	ad 01       	movw	r20, r26
    2c9c:	c7 01       	movw	r24, r14
    2c9e:	b6 01       	movw	r22, r12
    2ca0:	05 d1       	rcall	.+522    	; 0x2eac <__divsf3>
    2ca2:	dc 01       	movw	r26, r24
    2ca4:	cb 01       	movw	r24, r22
    2ca6:	6c 01       	movw	r12, r24
    2ca8:	7d 01       	movw	r14, r26
    2caa:	8e 85       	ldd	r24, Y+14	; 0x0e
    2cac:	88 2f       	mov	r24, r24
    2cae:	90 e0       	ldi	r25, 0x00	; 0
    2cb0:	a0 e0       	ldi	r26, 0x00	; 0
    2cb2:	b0 e0       	ldi	r27, 0x00	; 0
    2cb4:	bc 01       	movw	r22, r24
    2cb6:	cd 01       	movw	r24, r26
    2cb8:	92 d1       	rcall	.+804    	; 0x2fde <__floatunsisf>
    2cba:	4b 01       	movw	r8, r22
    2cbc:	5c 01       	movw	r10, r24
    2cbe:	8d 81       	ldd	r24, Y+5	; 0x05
    2cc0:	88 2f       	mov	r24, r24
    2cc2:	90 e0       	ldi	r25, 0x00	; 0
    2cc4:	8f 5b       	subi	r24, 0xBF	; 191
    2cc6:	9c 4f       	sbci	r25, 0xFC	; 252
    2cc8:	fc 01       	movw	r30, r24
    2cca:	80 81       	ld	r24, Z
    2ccc:	88 2f       	mov	r24, r24
    2cce:	90 e0       	ldi	r25, 0x00	; 0
    2cd0:	a0 e0       	ldi	r26, 0x00	; 0
    2cd2:	b0 e0       	ldi	r27, 0x00	; 0
    2cd4:	bc 01       	movw	r22, r24
    2cd6:	cd 01       	movw	r24, r26
    2cd8:	82 d1       	rcall	.+772    	; 0x2fde <__floatunsisf>
    2cda:	dc 01       	movw	r26, r24
    2cdc:	cb 01       	movw	r24, r22
    2cde:	9c 01       	movw	r18, r24
    2ce0:	ad 01       	movw	r20, r26
    2ce2:	c5 01       	movw	r24, r10
    2ce4:	b4 01       	movw	r22, r8
    2ce6:	79 d0       	rcall	.+242    	; 0x2dda <__subsf3>
    2ce8:	dc 01       	movw	r26, r24
    2cea:	cb 01       	movw	r24, r22
    2cec:	9c 01       	movw	r18, r24
    2cee:	ad 01       	movw	r20, r26
    2cf0:	c7 01       	movw	r24, r14
    2cf2:	b6 01       	movw	r22, r12
    2cf4:	2a d2       	rcall	.+1108   	; 0x314a <__mulsf3>
    2cf6:	dc 01       	movw	r26, r24
    2cf8:	cb 01       	movw	r24, r22
    2cfa:	6c 01       	movw	r12, r24
    2cfc:	7d 01       	movw	r14, r26
    2cfe:	8d 81       	ldd	r24, Y+5	; 0x05
    2d00:	88 2f       	mov	r24, r24
    2d02:	90 e0       	ldi	r25, 0x00	; 0
    2d04:	85 5c       	subi	r24, 0xC5	; 197
    2d06:	9b 4f       	sbci	r25, 0xFB	; 251
    2d08:	fc 01       	movw	r30, r24
    2d0a:	80 81       	ld	r24, Z
    2d0c:	88 2f       	mov	r24, r24
    2d0e:	90 e0       	ldi	r25, 0x00	; 0
    2d10:	a0 e0       	ldi	r26, 0x00	; 0
    2d12:	b0 e0       	ldi	r27, 0x00	; 0
    2d14:	bc 01       	movw	r22, r24
    2d16:	cd 01       	movw	r24, r26
    2d18:	62 d1       	rcall	.+708    	; 0x2fde <__floatunsisf>
    2d1a:	dc 01       	movw	r26, r24
    2d1c:	cb 01       	movw	r24, r22
    2d1e:	9c 01       	movw	r18, r24
    2d20:	ad 01       	movw	r20, r26
    2d22:	c7 01       	movw	r24, r14
    2d24:	b6 01       	movw	r22, r12
    2d26:	5a d0       	rcall	.+180    	; 0x2ddc <__addsf3>
    2d28:	dc 01       	movw	r26, r24
    2d2a:	cb 01       	movw	r24, r22
    2d2c:	89 83       	std	Y+1, r24	; 0x01
    2d2e:	9a 83       	std	Y+2, r25	; 0x02
    2d30:	ab 83       	std	Y+3, r26	; 0x03
    2d32:	bc 83       	std	Y+4, r27	; 0x04
    2d34:	89 81       	ldd	r24, Y+1	; 0x01
    2d36:	9a 81       	ldd	r25, Y+2	; 0x02
    2d38:	ab 81       	ldd	r26, Y+3	; 0x03
    2d3a:	bc 81       	ldd	r27, Y+4	; 0x04
    2d3c:	9c 01       	movw	r18, r24
    2d3e:	ad 01       	movw	r20, r26
    2d40:	bc 01       	movw	r22, r24
    2d42:	cd 01       	movw	r24, r26
    2d44:	4b d0       	rcall	.+150    	; 0x2ddc <__addsf3>
    2d46:	dc 01       	movw	r26, r24
    2d48:	cb 01       	movw	r24, r22
    2d4a:	89 83       	std	Y+1, r24	; 0x01
    2d4c:	9a 83       	std	Y+2, r25	; 0x02
    2d4e:	ab 83       	std	Y+3, r26	; 0x03
    2d50:	bc 83       	std	Y+4, r27	; 0x04
    2d52:	80 91 0a 01 	lds	r24, 0x010A	; 0x80010a <mass_eff>
    2d56:	90 91 0b 01 	lds	r25, 0x010B	; 0x80010b <mass_eff+0x1>
    2d5a:	a0 91 0c 01 	lds	r26, 0x010C	; 0x80010c <mass_eff+0x2>
    2d5e:	b0 91 0d 01 	lds	r27, 0x010D	; 0x80010d <mass_eff+0x3>
    2d62:	2f 85       	ldd	r18, Y+15	; 0x0f
    2d64:	38 89       	ldd	r19, Y+16	; 0x10
    2d66:	49 89       	ldd	r20, Y+17	; 0x11
    2d68:	5a 89       	ldd	r21, Y+18	; 0x12
    2d6a:	bc 01       	movw	r22, r24
    2d6c:	cd 01       	movw	r24, r26
    2d6e:	ed d1       	rcall	.+986    	; 0x314a <__mulsf3>
    2d70:	dc 01       	movw	r26, r24
    2d72:	cb 01       	movw	r24, r22
    2d74:	2b 89       	ldd	r18, Y+19	; 0x13
    2d76:	3c 89       	ldd	r19, Y+20	; 0x14
    2d78:	4d 89       	ldd	r20, Y+21	; 0x15
    2d7a:	5e 89       	ldd	r21, Y+22	; 0x16
    2d7c:	bc 01       	movw	r22, r24
    2d7e:	cd 01       	movw	r24, r26
    2d80:	e4 d1       	rcall	.+968    	; 0x314a <__mulsf3>
    2d82:	dc 01       	movw	r26, r24
    2d84:	cb 01       	movw	r24, r22
    2d86:	8a 87       	std	Y+10, r24	; 0x0a
    2d88:	9b 87       	std	Y+11, r25	; 0x0b
    2d8a:	ac 87       	std	Y+12, r26	; 0x0c
    2d8c:	bd 87       	std	Y+13, r27	; 0x0d
    2d8e:	2a 85       	ldd	r18, Y+10	; 0x0a
    2d90:	3b 85       	ldd	r19, Y+11	; 0x0b
    2d92:	4c 85       	ldd	r20, Y+12	; 0x0c
    2d94:	5d 85       	ldd	r21, Y+13	; 0x0d
    2d96:	69 81       	ldd	r22, Y+1	; 0x01
    2d98:	7a 81       	ldd	r23, Y+2	; 0x02
    2d9a:	8b 81       	ldd	r24, Y+3	; 0x03
    2d9c:	9c 81       	ldd	r25, Y+4	; 0x04
    2d9e:	1e d0       	rcall	.+60     	; 0x2ddc <__addsf3>
    2da0:	dc 01       	movw	r26, r24
    2da2:	cb 01       	movw	r24, r22
    2da4:	8e 83       	std	Y+6, r24	; 0x06
    2da6:	9f 83       	std	Y+7, r25	; 0x07
    2da8:	a8 87       	std	Y+8, r26	; 0x08
    2daa:	b9 87       	std	Y+9, r27	; 0x09
    2dac:	8e 81       	ldd	r24, Y+6	; 0x06
    2dae:	9f 81       	ldd	r25, Y+7	; 0x07
    2db0:	a8 85       	ldd	r26, Y+8	; 0x08
    2db2:	b9 85       	ldd	r27, Y+9	; 0x09
    2db4:	bc 01       	movw	r22, r24
    2db6:	cd 01       	movw	r24, r26
    2db8:	66 96       	adiw	r28, 0x16	; 22
    2dba:	0f b6       	in	r0, 0x3f	; 63
    2dbc:	f8 94       	cli
    2dbe:	de bf       	out	0x3e, r29	; 62
    2dc0:	0f be       	out	0x3f, r0	; 63
    2dc2:	cd bf       	out	0x3d, r28	; 61
    2dc4:	df 91       	pop	r29
    2dc6:	cf 91       	pop	r28
    2dc8:	ff 90       	pop	r15
    2dca:	ef 90       	pop	r14
    2dcc:	df 90       	pop	r13
    2dce:	cf 90       	pop	r12
    2dd0:	bf 90       	pop	r11
    2dd2:	af 90       	pop	r10
    2dd4:	9f 90       	pop	r9
    2dd6:	8f 90       	pop	r8
    2dd8:	08 95       	ret

00002dda <__subsf3>:
    2dda:	50 58       	subi	r21, 0x80	; 128

00002ddc <__addsf3>:
    2ddc:	bb 27       	eor	r27, r27
    2dde:	aa 27       	eor	r26, r26
    2de0:	0e d0       	rcall	.+28     	; 0x2dfe <__addsf3x>
    2de2:	75 c1       	rjmp	.+746    	; 0x30ce <__fp_round>
    2de4:	66 d1       	rcall	.+716    	; 0x30b2 <__fp_pscA>
    2de6:	30 f0       	brcs	.+12     	; 0x2df4 <__addsf3+0x18>
    2de8:	6b d1       	rcall	.+726    	; 0x30c0 <__fp_pscB>
    2dea:	20 f0       	brcs	.+8      	; 0x2df4 <__addsf3+0x18>
    2dec:	31 f4       	brne	.+12     	; 0x2dfa <__addsf3+0x1e>
    2dee:	9f 3f       	cpi	r25, 0xFF	; 255
    2df0:	11 f4       	brne	.+4      	; 0x2df6 <__addsf3+0x1a>
    2df2:	1e f4       	brtc	.+6      	; 0x2dfa <__addsf3+0x1e>
    2df4:	5b c1       	rjmp	.+694    	; 0x30ac <__fp_nan>
    2df6:	0e f4       	brtc	.+2      	; 0x2dfa <__addsf3+0x1e>
    2df8:	e0 95       	com	r30
    2dfa:	e7 fb       	bst	r30, 7
    2dfc:	51 c1       	rjmp	.+674    	; 0x30a0 <__fp_inf>

00002dfe <__addsf3x>:
    2dfe:	e9 2f       	mov	r30, r25
    2e00:	77 d1       	rcall	.+750    	; 0x30f0 <__fp_split3>
    2e02:	80 f3       	brcs	.-32     	; 0x2de4 <__addsf3+0x8>
    2e04:	ba 17       	cp	r27, r26
    2e06:	62 07       	cpc	r22, r18
    2e08:	73 07       	cpc	r23, r19
    2e0a:	84 07       	cpc	r24, r20
    2e0c:	95 07       	cpc	r25, r21
    2e0e:	18 f0       	brcs	.+6      	; 0x2e16 <__addsf3x+0x18>
    2e10:	71 f4       	brne	.+28     	; 0x2e2e <__addsf3x+0x30>
    2e12:	9e f5       	brtc	.+102    	; 0x2e7a <__addsf3x+0x7c>
    2e14:	8f c1       	rjmp	.+798    	; 0x3134 <__fp_zero>
    2e16:	0e f4       	brtc	.+2      	; 0x2e1a <__addsf3x+0x1c>
    2e18:	e0 95       	com	r30
    2e1a:	0b 2e       	mov	r0, r27
    2e1c:	ba 2f       	mov	r27, r26
    2e1e:	a0 2d       	mov	r26, r0
    2e20:	0b 01       	movw	r0, r22
    2e22:	b9 01       	movw	r22, r18
    2e24:	90 01       	movw	r18, r0
    2e26:	0c 01       	movw	r0, r24
    2e28:	ca 01       	movw	r24, r20
    2e2a:	a0 01       	movw	r20, r0
    2e2c:	11 24       	eor	r1, r1
    2e2e:	ff 27       	eor	r31, r31
    2e30:	59 1b       	sub	r21, r25
    2e32:	99 f0       	breq	.+38     	; 0x2e5a <__addsf3x+0x5c>
    2e34:	59 3f       	cpi	r21, 0xF9	; 249
    2e36:	50 f4       	brcc	.+20     	; 0x2e4c <__addsf3x+0x4e>
    2e38:	50 3e       	cpi	r21, 0xE0	; 224
    2e3a:	68 f1       	brcs	.+90     	; 0x2e96 <__addsf3x+0x98>
    2e3c:	1a 16       	cp	r1, r26
    2e3e:	f0 40       	sbci	r31, 0x00	; 0
    2e40:	a2 2f       	mov	r26, r18
    2e42:	23 2f       	mov	r18, r19
    2e44:	34 2f       	mov	r19, r20
    2e46:	44 27       	eor	r20, r20
    2e48:	58 5f       	subi	r21, 0xF8	; 248
    2e4a:	f3 cf       	rjmp	.-26     	; 0x2e32 <__addsf3x+0x34>
    2e4c:	46 95       	lsr	r20
    2e4e:	37 95       	ror	r19
    2e50:	27 95       	ror	r18
    2e52:	a7 95       	ror	r26
    2e54:	f0 40       	sbci	r31, 0x00	; 0
    2e56:	53 95       	inc	r21
    2e58:	c9 f7       	brne	.-14     	; 0x2e4c <__addsf3x+0x4e>
    2e5a:	7e f4       	brtc	.+30     	; 0x2e7a <__addsf3x+0x7c>
    2e5c:	1f 16       	cp	r1, r31
    2e5e:	ba 0b       	sbc	r27, r26
    2e60:	62 0b       	sbc	r22, r18
    2e62:	73 0b       	sbc	r23, r19
    2e64:	84 0b       	sbc	r24, r20
    2e66:	ba f0       	brmi	.+46     	; 0x2e96 <__addsf3x+0x98>
    2e68:	91 50       	subi	r25, 0x01	; 1
    2e6a:	a1 f0       	breq	.+40     	; 0x2e94 <__addsf3x+0x96>
    2e6c:	ff 0f       	add	r31, r31
    2e6e:	bb 1f       	adc	r27, r27
    2e70:	66 1f       	adc	r22, r22
    2e72:	77 1f       	adc	r23, r23
    2e74:	88 1f       	adc	r24, r24
    2e76:	c2 f7       	brpl	.-16     	; 0x2e68 <__addsf3x+0x6a>
    2e78:	0e c0       	rjmp	.+28     	; 0x2e96 <__addsf3x+0x98>
    2e7a:	ba 0f       	add	r27, r26
    2e7c:	62 1f       	adc	r22, r18
    2e7e:	73 1f       	adc	r23, r19
    2e80:	84 1f       	adc	r24, r20
    2e82:	48 f4       	brcc	.+18     	; 0x2e96 <__addsf3x+0x98>
    2e84:	87 95       	ror	r24
    2e86:	77 95       	ror	r23
    2e88:	67 95       	ror	r22
    2e8a:	b7 95       	ror	r27
    2e8c:	f7 95       	ror	r31
    2e8e:	9e 3f       	cpi	r25, 0xFE	; 254
    2e90:	08 f0       	brcs	.+2      	; 0x2e94 <__addsf3x+0x96>
    2e92:	b3 cf       	rjmp	.-154    	; 0x2dfa <__addsf3+0x1e>
    2e94:	93 95       	inc	r25
    2e96:	88 0f       	add	r24, r24
    2e98:	08 f0       	brcs	.+2      	; 0x2e9c <__addsf3x+0x9e>
    2e9a:	99 27       	eor	r25, r25
    2e9c:	ee 0f       	add	r30, r30
    2e9e:	97 95       	ror	r25
    2ea0:	87 95       	ror	r24
    2ea2:	08 95       	ret

00002ea4 <__cmpsf2>:
    2ea4:	d9 d0       	rcall	.+434    	; 0x3058 <__fp_cmp>
    2ea6:	08 f4       	brcc	.+2      	; 0x2eaa <__cmpsf2+0x6>
    2ea8:	81 e0       	ldi	r24, 0x01	; 1
    2eaa:	08 95       	ret

00002eac <__divsf3>:
    2eac:	0c d0       	rcall	.+24     	; 0x2ec6 <__divsf3x>
    2eae:	0f c1       	rjmp	.+542    	; 0x30ce <__fp_round>
    2eb0:	07 d1       	rcall	.+526    	; 0x30c0 <__fp_pscB>
    2eb2:	40 f0       	brcs	.+16     	; 0x2ec4 <__divsf3+0x18>
    2eb4:	fe d0       	rcall	.+508    	; 0x30b2 <__fp_pscA>
    2eb6:	30 f0       	brcs	.+12     	; 0x2ec4 <__divsf3+0x18>
    2eb8:	21 f4       	brne	.+8      	; 0x2ec2 <__divsf3+0x16>
    2eba:	5f 3f       	cpi	r21, 0xFF	; 255
    2ebc:	19 f0       	breq	.+6      	; 0x2ec4 <__divsf3+0x18>
    2ebe:	f0 c0       	rjmp	.+480    	; 0x30a0 <__fp_inf>
    2ec0:	51 11       	cpse	r21, r1
    2ec2:	39 c1       	rjmp	.+626    	; 0x3136 <__fp_szero>
    2ec4:	f3 c0       	rjmp	.+486    	; 0x30ac <__fp_nan>

00002ec6 <__divsf3x>:
    2ec6:	14 d1       	rcall	.+552    	; 0x30f0 <__fp_split3>
    2ec8:	98 f3       	brcs	.-26     	; 0x2eb0 <__divsf3+0x4>

00002eca <__divsf3_pse>:
    2eca:	99 23       	and	r25, r25
    2ecc:	c9 f3       	breq	.-14     	; 0x2ec0 <__divsf3+0x14>
    2ece:	55 23       	and	r21, r21
    2ed0:	b1 f3       	breq	.-20     	; 0x2ebe <__divsf3+0x12>
    2ed2:	95 1b       	sub	r25, r21
    2ed4:	55 0b       	sbc	r21, r21
    2ed6:	bb 27       	eor	r27, r27
    2ed8:	aa 27       	eor	r26, r26
    2eda:	62 17       	cp	r22, r18
    2edc:	73 07       	cpc	r23, r19
    2ede:	84 07       	cpc	r24, r20
    2ee0:	38 f0       	brcs	.+14     	; 0x2ef0 <__divsf3_pse+0x26>
    2ee2:	9f 5f       	subi	r25, 0xFF	; 255
    2ee4:	5f 4f       	sbci	r21, 0xFF	; 255
    2ee6:	22 0f       	add	r18, r18
    2ee8:	33 1f       	adc	r19, r19
    2eea:	44 1f       	adc	r20, r20
    2eec:	aa 1f       	adc	r26, r26
    2eee:	a9 f3       	breq	.-22     	; 0x2eda <__divsf3_pse+0x10>
    2ef0:	33 d0       	rcall	.+102    	; 0x2f58 <__divsf3_pse+0x8e>
    2ef2:	0e 2e       	mov	r0, r30
    2ef4:	3a f0       	brmi	.+14     	; 0x2f04 <__divsf3_pse+0x3a>
    2ef6:	e0 e8       	ldi	r30, 0x80	; 128
    2ef8:	30 d0       	rcall	.+96     	; 0x2f5a <__divsf3_pse+0x90>
    2efa:	91 50       	subi	r25, 0x01	; 1
    2efc:	50 40       	sbci	r21, 0x00	; 0
    2efe:	e6 95       	lsr	r30
    2f00:	00 1c       	adc	r0, r0
    2f02:	ca f7       	brpl	.-14     	; 0x2ef6 <__divsf3_pse+0x2c>
    2f04:	29 d0       	rcall	.+82     	; 0x2f58 <__divsf3_pse+0x8e>
    2f06:	fe 2f       	mov	r31, r30
    2f08:	27 d0       	rcall	.+78     	; 0x2f58 <__divsf3_pse+0x8e>
    2f0a:	66 0f       	add	r22, r22
    2f0c:	77 1f       	adc	r23, r23
    2f0e:	88 1f       	adc	r24, r24
    2f10:	bb 1f       	adc	r27, r27
    2f12:	26 17       	cp	r18, r22
    2f14:	37 07       	cpc	r19, r23
    2f16:	48 07       	cpc	r20, r24
    2f18:	ab 07       	cpc	r26, r27
    2f1a:	b0 e8       	ldi	r27, 0x80	; 128
    2f1c:	09 f0       	breq	.+2      	; 0x2f20 <__divsf3_pse+0x56>
    2f1e:	bb 0b       	sbc	r27, r27
    2f20:	80 2d       	mov	r24, r0
    2f22:	bf 01       	movw	r22, r30
    2f24:	ff 27       	eor	r31, r31
    2f26:	93 58       	subi	r25, 0x83	; 131
    2f28:	5f 4f       	sbci	r21, 0xFF	; 255
    2f2a:	2a f0       	brmi	.+10     	; 0x2f36 <__divsf3_pse+0x6c>
    2f2c:	9e 3f       	cpi	r25, 0xFE	; 254
    2f2e:	51 05       	cpc	r21, r1
    2f30:	68 f0       	brcs	.+26     	; 0x2f4c <__divsf3_pse+0x82>
    2f32:	b6 c0       	rjmp	.+364    	; 0x30a0 <__fp_inf>
    2f34:	00 c1       	rjmp	.+512    	; 0x3136 <__fp_szero>
    2f36:	5f 3f       	cpi	r21, 0xFF	; 255
    2f38:	ec f3       	brlt	.-6      	; 0x2f34 <__divsf3_pse+0x6a>
    2f3a:	98 3e       	cpi	r25, 0xE8	; 232
    2f3c:	dc f3       	brlt	.-10     	; 0x2f34 <__divsf3_pse+0x6a>
    2f3e:	86 95       	lsr	r24
    2f40:	77 95       	ror	r23
    2f42:	67 95       	ror	r22
    2f44:	b7 95       	ror	r27
    2f46:	f7 95       	ror	r31
    2f48:	9f 5f       	subi	r25, 0xFF	; 255
    2f4a:	c9 f7       	brne	.-14     	; 0x2f3e <__divsf3_pse+0x74>
    2f4c:	88 0f       	add	r24, r24
    2f4e:	91 1d       	adc	r25, r1
    2f50:	96 95       	lsr	r25
    2f52:	87 95       	ror	r24
    2f54:	97 f9       	bld	r25, 7
    2f56:	08 95       	ret
    2f58:	e1 e0       	ldi	r30, 0x01	; 1
    2f5a:	66 0f       	add	r22, r22
    2f5c:	77 1f       	adc	r23, r23
    2f5e:	88 1f       	adc	r24, r24
    2f60:	bb 1f       	adc	r27, r27
    2f62:	62 17       	cp	r22, r18
    2f64:	73 07       	cpc	r23, r19
    2f66:	84 07       	cpc	r24, r20
    2f68:	ba 07       	cpc	r27, r26
    2f6a:	20 f0       	brcs	.+8      	; 0x2f74 <__divsf3_pse+0xaa>
    2f6c:	62 1b       	sub	r22, r18
    2f6e:	73 0b       	sbc	r23, r19
    2f70:	84 0b       	sbc	r24, r20
    2f72:	ba 0b       	sbc	r27, r26
    2f74:	ee 1f       	adc	r30, r30
    2f76:	88 f7       	brcc	.-30     	; 0x2f5a <__divsf3_pse+0x90>
    2f78:	e0 95       	com	r30
    2f7a:	08 95       	ret

00002f7c <__fixsfsi>:
    2f7c:	04 d0       	rcall	.+8      	; 0x2f86 <__fixunssfsi>
    2f7e:	68 94       	set
    2f80:	b1 11       	cpse	r27, r1
    2f82:	d9 c0       	rjmp	.+434    	; 0x3136 <__fp_szero>
    2f84:	08 95       	ret

00002f86 <__fixunssfsi>:
    2f86:	bc d0       	rcall	.+376    	; 0x3100 <__fp_splitA>
    2f88:	88 f0       	brcs	.+34     	; 0x2fac <__fixunssfsi+0x26>
    2f8a:	9f 57       	subi	r25, 0x7F	; 127
    2f8c:	90 f0       	brcs	.+36     	; 0x2fb2 <__fixunssfsi+0x2c>
    2f8e:	b9 2f       	mov	r27, r25
    2f90:	99 27       	eor	r25, r25
    2f92:	b7 51       	subi	r27, 0x17	; 23
    2f94:	a0 f0       	brcs	.+40     	; 0x2fbe <__fixunssfsi+0x38>
    2f96:	d1 f0       	breq	.+52     	; 0x2fcc <__fixunssfsi+0x46>
    2f98:	66 0f       	add	r22, r22
    2f9a:	77 1f       	adc	r23, r23
    2f9c:	88 1f       	adc	r24, r24
    2f9e:	99 1f       	adc	r25, r25
    2fa0:	1a f0       	brmi	.+6      	; 0x2fa8 <__fixunssfsi+0x22>
    2fa2:	ba 95       	dec	r27
    2fa4:	c9 f7       	brne	.-14     	; 0x2f98 <__fixunssfsi+0x12>
    2fa6:	12 c0       	rjmp	.+36     	; 0x2fcc <__fixunssfsi+0x46>
    2fa8:	b1 30       	cpi	r27, 0x01	; 1
    2faa:	81 f0       	breq	.+32     	; 0x2fcc <__fixunssfsi+0x46>
    2fac:	c3 d0       	rcall	.+390    	; 0x3134 <__fp_zero>
    2fae:	b1 e0       	ldi	r27, 0x01	; 1
    2fb0:	08 95       	ret
    2fb2:	c0 c0       	rjmp	.+384    	; 0x3134 <__fp_zero>
    2fb4:	67 2f       	mov	r22, r23
    2fb6:	78 2f       	mov	r23, r24
    2fb8:	88 27       	eor	r24, r24
    2fba:	b8 5f       	subi	r27, 0xF8	; 248
    2fbc:	39 f0       	breq	.+14     	; 0x2fcc <__fixunssfsi+0x46>
    2fbe:	b9 3f       	cpi	r27, 0xF9	; 249
    2fc0:	cc f3       	brlt	.-14     	; 0x2fb4 <__fixunssfsi+0x2e>
    2fc2:	86 95       	lsr	r24
    2fc4:	77 95       	ror	r23
    2fc6:	67 95       	ror	r22
    2fc8:	b3 95       	inc	r27
    2fca:	d9 f7       	brne	.-10     	; 0x2fc2 <__fixunssfsi+0x3c>
    2fcc:	3e f4       	brtc	.+14     	; 0x2fdc <__fixunssfsi+0x56>
    2fce:	90 95       	com	r25
    2fd0:	80 95       	com	r24
    2fd2:	70 95       	com	r23
    2fd4:	61 95       	neg	r22
    2fd6:	7f 4f       	sbci	r23, 0xFF	; 255
    2fd8:	8f 4f       	sbci	r24, 0xFF	; 255
    2fda:	9f 4f       	sbci	r25, 0xFF	; 255
    2fdc:	08 95       	ret

00002fde <__floatunsisf>:
    2fde:	e8 94       	clt
    2fe0:	09 c0       	rjmp	.+18     	; 0x2ff4 <__floatsisf+0x12>

00002fe2 <__floatsisf>:
    2fe2:	97 fb       	bst	r25, 7
    2fe4:	3e f4       	brtc	.+14     	; 0x2ff4 <__floatsisf+0x12>
    2fe6:	90 95       	com	r25
    2fe8:	80 95       	com	r24
    2fea:	70 95       	com	r23
    2fec:	61 95       	neg	r22
    2fee:	7f 4f       	sbci	r23, 0xFF	; 255
    2ff0:	8f 4f       	sbci	r24, 0xFF	; 255
    2ff2:	9f 4f       	sbci	r25, 0xFF	; 255
    2ff4:	99 23       	and	r25, r25
    2ff6:	a9 f0       	breq	.+42     	; 0x3022 <__floatsisf+0x40>
    2ff8:	f9 2f       	mov	r31, r25
    2ffa:	96 e9       	ldi	r25, 0x96	; 150
    2ffc:	bb 27       	eor	r27, r27
    2ffe:	93 95       	inc	r25
    3000:	f6 95       	lsr	r31
    3002:	87 95       	ror	r24
    3004:	77 95       	ror	r23
    3006:	67 95       	ror	r22
    3008:	b7 95       	ror	r27
    300a:	f1 11       	cpse	r31, r1
    300c:	f8 cf       	rjmp	.-16     	; 0x2ffe <__floatsisf+0x1c>
    300e:	fa f4       	brpl	.+62     	; 0x304e <__floatsisf+0x6c>
    3010:	bb 0f       	add	r27, r27
    3012:	11 f4       	brne	.+4      	; 0x3018 <__floatsisf+0x36>
    3014:	60 ff       	sbrs	r22, 0
    3016:	1b c0       	rjmp	.+54     	; 0x304e <__floatsisf+0x6c>
    3018:	6f 5f       	subi	r22, 0xFF	; 255
    301a:	7f 4f       	sbci	r23, 0xFF	; 255
    301c:	8f 4f       	sbci	r24, 0xFF	; 255
    301e:	9f 4f       	sbci	r25, 0xFF	; 255
    3020:	16 c0       	rjmp	.+44     	; 0x304e <__floatsisf+0x6c>
    3022:	88 23       	and	r24, r24
    3024:	11 f0       	breq	.+4      	; 0x302a <__floatsisf+0x48>
    3026:	96 e9       	ldi	r25, 0x96	; 150
    3028:	11 c0       	rjmp	.+34     	; 0x304c <__floatsisf+0x6a>
    302a:	77 23       	and	r23, r23
    302c:	21 f0       	breq	.+8      	; 0x3036 <__floatsisf+0x54>
    302e:	9e e8       	ldi	r25, 0x8E	; 142
    3030:	87 2f       	mov	r24, r23
    3032:	76 2f       	mov	r23, r22
    3034:	05 c0       	rjmp	.+10     	; 0x3040 <__floatsisf+0x5e>
    3036:	66 23       	and	r22, r22
    3038:	71 f0       	breq	.+28     	; 0x3056 <__floatsisf+0x74>
    303a:	96 e8       	ldi	r25, 0x86	; 134
    303c:	86 2f       	mov	r24, r22
    303e:	70 e0       	ldi	r23, 0x00	; 0
    3040:	60 e0       	ldi	r22, 0x00	; 0
    3042:	2a f0       	brmi	.+10     	; 0x304e <__floatsisf+0x6c>
    3044:	9a 95       	dec	r25
    3046:	66 0f       	add	r22, r22
    3048:	77 1f       	adc	r23, r23
    304a:	88 1f       	adc	r24, r24
    304c:	da f7       	brpl	.-10     	; 0x3044 <__floatsisf+0x62>
    304e:	88 0f       	add	r24, r24
    3050:	96 95       	lsr	r25
    3052:	87 95       	ror	r24
    3054:	97 f9       	bld	r25, 7
    3056:	08 95       	ret

00003058 <__fp_cmp>:
    3058:	99 0f       	add	r25, r25
    305a:	00 08       	sbc	r0, r0
    305c:	55 0f       	add	r21, r21
    305e:	aa 0b       	sbc	r26, r26
    3060:	e0 e8       	ldi	r30, 0x80	; 128
    3062:	fe ef       	ldi	r31, 0xFE	; 254
    3064:	16 16       	cp	r1, r22
    3066:	17 06       	cpc	r1, r23
    3068:	e8 07       	cpc	r30, r24
    306a:	f9 07       	cpc	r31, r25
    306c:	c0 f0       	brcs	.+48     	; 0x309e <__fp_cmp+0x46>
    306e:	12 16       	cp	r1, r18
    3070:	13 06       	cpc	r1, r19
    3072:	e4 07       	cpc	r30, r20
    3074:	f5 07       	cpc	r31, r21
    3076:	98 f0       	brcs	.+38     	; 0x309e <__fp_cmp+0x46>
    3078:	62 1b       	sub	r22, r18
    307a:	73 0b       	sbc	r23, r19
    307c:	84 0b       	sbc	r24, r20
    307e:	95 0b       	sbc	r25, r21
    3080:	39 f4       	brne	.+14     	; 0x3090 <__fp_cmp+0x38>
    3082:	0a 26       	eor	r0, r26
    3084:	61 f0       	breq	.+24     	; 0x309e <__fp_cmp+0x46>
    3086:	23 2b       	or	r18, r19
    3088:	24 2b       	or	r18, r20
    308a:	25 2b       	or	r18, r21
    308c:	21 f4       	brne	.+8      	; 0x3096 <__fp_cmp+0x3e>
    308e:	08 95       	ret
    3090:	0a 26       	eor	r0, r26
    3092:	09 f4       	brne	.+2      	; 0x3096 <__fp_cmp+0x3e>
    3094:	a1 40       	sbci	r26, 0x01	; 1
    3096:	a6 95       	lsr	r26
    3098:	8f ef       	ldi	r24, 0xFF	; 255
    309a:	81 1d       	adc	r24, r1
    309c:	81 1d       	adc	r24, r1
    309e:	08 95       	ret

000030a0 <__fp_inf>:
    30a0:	97 f9       	bld	r25, 7
    30a2:	9f 67       	ori	r25, 0x7F	; 127
    30a4:	80 e8       	ldi	r24, 0x80	; 128
    30a6:	70 e0       	ldi	r23, 0x00	; 0
    30a8:	60 e0       	ldi	r22, 0x00	; 0
    30aa:	08 95       	ret

000030ac <__fp_nan>:
    30ac:	9f ef       	ldi	r25, 0xFF	; 255
    30ae:	80 ec       	ldi	r24, 0xC0	; 192
    30b0:	08 95       	ret

000030b2 <__fp_pscA>:
    30b2:	00 24       	eor	r0, r0
    30b4:	0a 94       	dec	r0
    30b6:	16 16       	cp	r1, r22
    30b8:	17 06       	cpc	r1, r23
    30ba:	18 06       	cpc	r1, r24
    30bc:	09 06       	cpc	r0, r25
    30be:	08 95       	ret

000030c0 <__fp_pscB>:
    30c0:	00 24       	eor	r0, r0
    30c2:	0a 94       	dec	r0
    30c4:	12 16       	cp	r1, r18
    30c6:	13 06       	cpc	r1, r19
    30c8:	14 06       	cpc	r1, r20
    30ca:	05 06       	cpc	r0, r21
    30cc:	08 95       	ret

000030ce <__fp_round>:
    30ce:	09 2e       	mov	r0, r25
    30d0:	03 94       	inc	r0
    30d2:	00 0c       	add	r0, r0
    30d4:	11 f4       	brne	.+4      	; 0x30da <__fp_round+0xc>
    30d6:	88 23       	and	r24, r24
    30d8:	52 f0       	brmi	.+20     	; 0x30ee <__fp_round+0x20>
    30da:	bb 0f       	add	r27, r27
    30dc:	40 f4       	brcc	.+16     	; 0x30ee <__fp_round+0x20>
    30de:	bf 2b       	or	r27, r31
    30e0:	11 f4       	brne	.+4      	; 0x30e6 <__fp_round+0x18>
    30e2:	60 ff       	sbrs	r22, 0
    30e4:	04 c0       	rjmp	.+8      	; 0x30ee <__fp_round+0x20>
    30e6:	6f 5f       	subi	r22, 0xFF	; 255
    30e8:	7f 4f       	sbci	r23, 0xFF	; 255
    30ea:	8f 4f       	sbci	r24, 0xFF	; 255
    30ec:	9f 4f       	sbci	r25, 0xFF	; 255
    30ee:	08 95       	ret

000030f0 <__fp_split3>:
    30f0:	57 fd       	sbrc	r21, 7
    30f2:	90 58       	subi	r25, 0x80	; 128
    30f4:	44 0f       	add	r20, r20
    30f6:	55 1f       	adc	r21, r21
    30f8:	59 f0       	breq	.+22     	; 0x3110 <__fp_splitA+0x10>
    30fa:	5f 3f       	cpi	r21, 0xFF	; 255
    30fc:	71 f0       	breq	.+28     	; 0x311a <__fp_splitA+0x1a>
    30fe:	47 95       	ror	r20

00003100 <__fp_splitA>:
    3100:	88 0f       	add	r24, r24
    3102:	97 fb       	bst	r25, 7
    3104:	99 1f       	adc	r25, r25
    3106:	61 f0       	breq	.+24     	; 0x3120 <__fp_splitA+0x20>
    3108:	9f 3f       	cpi	r25, 0xFF	; 255
    310a:	79 f0       	breq	.+30     	; 0x312a <__fp_splitA+0x2a>
    310c:	87 95       	ror	r24
    310e:	08 95       	ret
    3110:	12 16       	cp	r1, r18
    3112:	13 06       	cpc	r1, r19
    3114:	14 06       	cpc	r1, r20
    3116:	55 1f       	adc	r21, r21
    3118:	f2 cf       	rjmp	.-28     	; 0x30fe <__fp_split3+0xe>
    311a:	46 95       	lsr	r20
    311c:	f1 df       	rcall	.-30     	; 0x3100 <__fp_splitA>
    311e:	08 c0       	rjmp	.+16     	; 0x3130 <__fp_splitA+0x30>
    3120:	16 16       	cp	r1, r22
    3122:	17 06       	cpc	r1, r23
    3124:	18 06       	cpc	r1, r24
    3126:	99 1f       	adc	r25, r25
    3128:	f1 cf       	rjmp	.-30     	; 0x310c <__fp_splitA+0xc>
    312a:	86 95       	lsr	r24
    312c:	71 05       	cpc	r23, r1
    312e:	61 05       	cpc	r22, r1
    3130:	08 94       	sec
    3132:	08 95       	ret

00003134 <__fp_zero>:
    3134:	e8 94       	clt

00003136 <__fp_szero>:
    3136:	bb 27       	eor	r27, r27
    3138:	66 27       	eor	r22, r22
    313a:	77 27       	eor	r23, r23
    313c:	cb 01       	movw	r24, r22
    313e:	97 f9       	bld	r25, 7
    3140:	08 95       	ret

00003142 <__gesf2>:
    3142:	8a df       	rcall	.-236    	; 0x3058 <__fp_cmp>
    3144:	08 f4       	brcc	.+2      	; 0x3148 <__gesf2+0x6>
    3146:	8f ef       	ldi	r24, 0xFF	; 255
    3148:	08 95       	ret

0000314a <__mulsf3>:
    314a:	0b d0       	rcall	.+22     	; 0x3162 <__mulsf3x>
    314c:	c0 cf       	rjmp	.-128    	; 0x30ce <__fp_round>
    314e:	b1 df       	rcall	.-158    	; 0x30b2 <__fp_pscA>
    3150:	28 f0       	brcs	.+10     	; 0x315c <__mulsf3+0x12>
    3152:	b6 df       	rcall	.-148    	; 0x30c0 <__fp_pscB>
    3154:	18 f0       	brcs	.+6      	; 0x315c <__mulsf3+0x12>
    3156:	95 23       	and	r25, r21
    3158:	09 f0       	breq	.+2      	; 0x315c <__mulsf3+0x12>
    315a:	a2 cf       	rjmp	.-188    	; 0x30a0 <__fp_inf>
    315c:	a7 cf       	rjmp	.-178    	; 0x30ac <__fp_nan>
    315e:	11 24       	eor	r1, r1
    3160:	ea cf       	rjmp	.-44     	; 0x3136 <__fp_szero>

00003162 <__mulsf3x>:
    3162:	c6 df       	rcall	.-116    	; 0x30f0 <__fp_split3>
    3164:	a0 f3       	brcs	.-24     	; 0x314e <__mulsf3+0x4>

00003166 <__mulsf3_pse>:
    3166:	95 9f       	mul	r25, r21
    3168:	d1 f3       	breq	.-12     	; 0x315e <__mulsf3+0x14>
    316a:	95 0f       	add	r25, r21
    316c:	50 e0       	ldi	r21, 0x00	; 0
    316e:	55 1f       	adc	r21, r21
    3170:	62 9f       	mul	r22, r18
    3172:	f0 01       	movw	r30, r0
    3174:	72 9f       	mul	r23, r18
    3176:	bb 27       	eor	r27, r27
    3178:	f0 0d       	add	r31, r0
    317a:	b1 1d       	adc	r27, r1
    317c:	63 9f       	mul	r22, r19
    317e:	aa 27       	eor	r26, r26
    3180:	f0 0d       	add	r31, r0
    3182:	b1 1d       	adc	r27, r1
    3184:	aa 1f       	adc	r26, r26
    3186:	64 9f       	mul	r22, r20
    3188:	66 27       	eor	r22, r22
    318a:	b0 0d       	add	r27, r0
    318c:	a1 1d       	adc	r26, r1
    318e:	66 1f       	adc	r22, r22
    3190:	82 9f       	mul	r24, r18
    3192:	22 27       	eor	r18, r18
    3194:	b0 0d       	add	r27, r0
    3196:	a1 1d       	adc	r26, r1
    3198:	62 1f       	adc	r22, r18
    319a:	73 9f       	mul	r23, r19
    319c:	b0 0d       	add	r27, r0
    319e:	a1 1d       	adc	r26, r1
    31a0:	62 1f       	adc	r22, r18
    31a2:	83 9f       	mul	r24, r19
    31a4:	a0 0d       	add	r26, r0
    31a6:	61 1d       	adc	r22, r1
    31a8:	22 1f       	adc	r18, r18
    31aa:	74 9f       	mul	r23, r20
    31ac:	33 27       	eor	r19, r19
    31ae:	a0 0d       	add	r26, r0
    31b0:	61 1d       	adc	r22, r1
    31b2:	23 1f       	adc	r18, r19
    31b4:	84 9f       	mul	r24, r20
    31b6:	60 0d       	add	r22, r0
    31b8:	21 1d       	adc	r18, r1
    31ba:	82 2f       	mov	r24, r18
    31bc:	76 2f       	mov	r23, r22
    31be:	6a 2f       	mov	r22, r26
    31c0:	11 24       	eor	r1, r1
    31c2:	9f 57       	subi	r25, 0x7F	; 127
    31c4:	50 40       	sbci	r21, 0x00	; 0
    31c6:	8a f0       	brmi	.+34     	; 0x31ea <__mulsf3_pse+0x84>
    31c8:	e1 f0       	breq	.+56     	; 0x3202 <__mulsf3_pse+0x9c>
    31ca:	88 23       	and	r24, r24
    31cc:	4a f0       	brmi	.+18     	; 0x31e0 <__mulsf3_pse+0x7a>
    31ce:	ee 0f       	add	r30, r30
    31d0:	ff 1f       	adc	r31, r31
    31d2:	bb 1f       	adc	r27, r27
    31d4:	66 1f       	adc	r22, r22
    31d6:	77 1f       	adc	r23, r23
    31d8:	88 1f       	adc	r24, r24
    31da:	91 50       	subi	r25, 0x01	; 1
    31dc:	50 40       	sbci	r21, 0x00	; 0
    31de:	a9 f7       	brne	.-22     	; 0x31ca <__mulsf3_pse+0x64>
    31e0:	9e 3f       	cpi	r25, 0xFE	; 254
    31e2:	51 05       	cpc	r21, r1
    31e4:	70 f0       	brcs	.+28     	; 0x3202 <__mulsf3_pse+0x9c>
    31e6:	5c cf       	rjmp	.-328    	; 0x30a0 <__fp_inf>
    31e8:	a6 cf       	rjmp	.-180    	; 0x3136 <__fp_szero>
    31ea:	5f 3f       	cpi	r21, 0xFF	; 255
    31ec:	ec f3       	brlt	.-6      	; 0x31e8 <__mulsf3_pse+0x82>
    31ee:	98 3e       	cpi	r25, 0xE8	; 232
    31f0:	dc f3       	brlt	.-10     	; 0x31e8 <__mulsf3_pse+0x82>
    31f2:	86 95       	lsr	r24
    31f4:	77 95       	ror	r23
    31f6:	67 95       	ror	r22
    31f8:	b7 95       	ror	r27
    31fa:	f7 95       	ror	r31
    31fc:	e7 95       	ror	r30
    31fe:	9f 5f       	subi	r25, 0xFF	; 255
    3200:	c1 f7       	brne	.-16     	; 0x31f2 <__mulsf3_pse+0x8c>
    3202:	fe 2b       	or	r31, r30
    3204:	88 0f       	add	r24, r24
    3206:	91 1d       	adc	r25, r1
    3208:	96 95       	lsr	r25
    320a:	87 95       	ror	r24
    320c:	97 f9       	bld	r25, 7
    320e:	08 95       	ret

00003210 <__mulsi3>:
    3210:	db 01       	movw	r26, r22
    3212:	8f 93       	push	r24
    3214:	9f 93       	push	r25
    3216:	2d d0       	rcall	.+90     	; 0x3272 <__muluhisi3>
    3218:	bf 91       	pop	r27
    321a:	af 91       	pop	r26
    321c:	a2 9f       	mul	r26, r18
    321e:	80 0d       	add	r24, r0
    3220:	91 1d       	adc	r25, r1
    3222:	a3 9f       	mul	r26, r19
    3224:	90 0d       	add	r25, r0
    3226:	b2 9f       	mul	r27, r18
    3228:	90 0d       	add	r25, r0
    322a:	11 24       	eor	r1, r1
    322c:	08 95       	ret

0000322e <__udivmodsi4>:
    322e:	a1 e2       	ldi	r26, 0x21	; 33
    3230:	1a 2e       	mov	r1, r26
    3232:	aa 1b       	sub	r26, r26
    3234:	bb 1b       	sub	r27, r27
    3236:	fd 01       	movw	r30, r26
    3238:	0d c0       	rjmp	.+26     	; 0x3254 <__udivmodsi4_ep>

0000323a <__udivmodsi4_loop>:
    323a:	aa 1f       	adc	r26, r26
    323c:	bb 1f       	adc	r27, r27
    323e:	ee 1f       	adc	r30, r30
    3240:	ff 1f       	adc	r31, r31
    3242:	a2 17       	cp	r26, r18
    3244:	b3 07       	cpc	r27, r19
    3246:	e4 07       	cpc	r30, r20
    3248:	f5 07       	cpc	r31, r21
    324a:	20 f0       	brcs	.+8      	; 0x3254 <__udivmodsi4_ep>
    324c:	a2 1b       	sub	r26, r18
    324e:	b3 0b       	sbc	r27, r19
    3250:	e4 0b       	sbc	r30, r20
    3252:	f5 0b       	sbc	r31, r21

00003254 <__udivmodsi4_ep>:
    3254:	66 1f       	adc	r22, r22
    3256:	77 1f       	adc	r23, r23
    3258:	88 1f       	adc	r24, r24
    325a:	99 1f       	adc	r25, r25
    325c:	1a 94       	dec	r1
    325e:	69 f7       	brne	.-38     	; 0x323a <__udivmodsi4_loop>
    3260:	60 95       	com	r22
    3262:	70 95       	com	r23
    3264:	80 95       	com	r24
    3266:	90 95       	com	r25
    3268:	9b 01       	movw	r18, r22
    326a:	ac 01       	movw	r20, r24
    326c:	bd 01       	movw	r22, r26
    326e:	cf 01       	movw	r24, r30
    3270:	08 95       	ret

00003272 <__muluhisi3>:
    3272:	09 d0       	rcall	.+18     	; 0x3286 <__umulhisi3>
    3274:	a5 9f       	mul	r26, r21
    3276:	90 0d       	add	r25, r0
    3278:	b4 9f       	mul	r27, r20
    327a:	90 0d       	add	r25, r0
    327c:	a4 9f       	mul	r26, r20
    327e:	80 0d       	add	r24, r0
    3280:	91 1d       	adc	r25, r1
    3282:	11 24       	eor	r1, r1
    3284:	08 95       	ret

00003286 <__umulhisi3>:
    3286:	a2 9f       	mul	r26, r18
    3288:	b0 01       	movw	r22, r0
    328a:	b3 9f       	mul	r27, r19
    328c:	c0 01       	movw	r24, r0
    328e:	a3 9f       	mul	r26, r19
    3290:	70 0d       	add	r23, r0
    3292:	81 1d       	adc	r24, r1
    3294:	11 24       	eor	r1, r1
    3296:	91 1d       	adc	r25, r1
    3298:	b2 9f       	mul	r27, r18
    329a:	70 0d       	add	r23, r0
    329c:	81 1d       	adc	r24, r1
    329e:	11 24       	eor	r1, r1
    32a0:	91 1d       	adc	r25, r1
    32a2:	08 95       	ret

000032a4 <itoa>:
    32a4:	45 32       	cpi	r20, 0x25	; 37
    32a6:	51 05       	cpc	r21, r1
    32a8:	18 f4       	brcc	.+6      	; 0x32b0 <itoa+0xc>
    32aa:	42 30       	cpi	r20, 0x02	; 2
    32ac:	08 f0       	brcs	.+2      	; 0x32b0 <itoa+0xc>
    32ae:	04 c0       	rjmp	.+8      	; 0x32b8 <__itoa_ncheck>
    32b0:	fb 01       	movw	r30, r22
    32b2:	10 82       	st	Z, r1
    32b4:	cb 01       	movw	r24, r22
    32b6:	08 95       	ret

000032b8 <__itoa_ncheck>:
    32b8:	bb 27       	eor	r27, r27
    32ba:	4a 30       	cpi	r20, 0x0A	; 10
    32bc:	31 f4       	brne	.+12     	; 0x32ca <__itoa_ncheck+0x12>
    32be:	99 23       	and	r25, r25
    32c0:	22 f4       	brpl	.+8      	; 0x32ca <__itoa_ncheck+0x12>
    32c2:	bd e2       	ldi	r27, 0x2D	; 45
    32c4:	90 95       	com	r25
    32c6:	81 95       	neg	r24
    32c8:	9f 4f       	sbci	r25, 0xFF	; 255
    32ca:	01 c0       	rjmp	.+2      	; 0x32ce <__utoa_common>

000032cc <__utoa_ncheck>:
    32cc:	bb 27       	eor	r27, r27

000032ce <__utoa_common>:
    32ce:	fb 01       	movw	r30, r22
    32d0:	55 27       	eor	r21, r21
    32d2:	aa 27       	eor	r26, r26
    32d4:	88 0f       	add	r24, r24
    32d6:	99 1f       	adc	r25, r25
    32d8:	aa 1f       	adc	r26, r26
    32da:	a4 17       	cp	r26, r20
    32dc:	10 f0       	brcs	.+4      	; 0x32e2 <__utoa_common+0x14>
    32de:	a4 1b       	sub	r26, r20
    32e0:	83 95       	inc	r24
    32e2:	50 51       	subi	r21, 0x10	; 16
    32e4:	b9 f7       	brne	.-18     	; 0x32d4 <__utoa_common+0x6>
    32e6:	a0 5d       	subi	r26, 0xD0	; 208
    32e8:	aa 33       	cpi	r26, 0x3A	; 58
    32ea:	08 f0       	brcs	.+2      	; 0x32ee <__utoa_common+0x20>
    32ec:	a9 5d       	subi	r26, 0xD9	; 217
    32ee:	a1 93       	st	Z+, r26
    32f0:	00 97       	sbiw	r24, 0x00	; 0
    32f2:	79 f7       	brne	.-34     	; 0x32d2 <__utoa_common+0x4>
    32f4:	b1 11       	cpse	r27, r1
    32f6:	b1 93       	st	Z+, r27
    32f8:	11 92       	st	Z+, r1
    32fa:	cb 01       	movw	r24, r22
    32fc:	00 c0       	rjmp	.+0      	; 0x32fe <strrev>

000032fe <strrev>:
    32fe:	dc 01       	movw	r26, r24
    3300:	fc 01       	movw	r30, r24
    3302:	67 2f       	mov	r22, r23
    3304:	71 91       	ld	r23, Z+
    3306:	77 23       	and	r23, r23
    3308:	e1 f7       	brne	.-8      	; 0x3302 <strrev+0x4>
    330a:	32 97       	sbiw	r30, 0x02	; 2
    330c:	04 c0       	rjmp	.+8      	; 0x3316 <strrev+0x18>
    330e:	7c 91       	ld	r23, X
    3310:	6d 93       	st	X+, r22
    3312:	70 83       	st	Z, r23
    3314:	62 91       	ld	r22, -Z
    3316:	ae 17       	cp	r26, r30
    3318:	bf 07       	cpc	r27, r31
    331a:	c8 f3       	brcs	.-14     	; 0x330e <strrev+0x10>
    331c:	08 95       	ret

0000331e <_exit>:
    331e:	f8 94       	cli

00003320 <__stop_program>:
    3320:	ff cf       	rjmp	.-2      	; 0x3320 <__stop_program>
